
kernel8.elf:     file format elf64-littleaarch64


Disassembly of section .text:

0000000000080000 <__kernel_start_addr>:
   80000:	d53800a0 	mrs	x0, mpidr_el1
   80004:	92400400 	and	x0, x0, #0x3
   80008:	f100001f 	cmp	x0, #0x0
   8000c:	54000501 	b.ne	800ac <halt_core>  // b.any
   80010:	d5384240 	mrs	x0, currentel
   80014:	927e0400 	and	x0, x0, #0xc
   80018:	f100201f 	cmp	x0, #0x8
   8001c:	540001a0 	b.eq	80050 <trap_to_el1_from_el2>  // b.none
   80020:	aa1f03e0 	mov	x0, xzr
   80024:	d2800180 	mov	x0, #0xc                   	// #12
   80028:	d2807801 	mov	x1, #0x3c0                 	// #960
   8002c:	aa010000 	orr	x0, x0, x1
   80030:	d51e4000 	msr	spsr_el3, x0
   80034:	aa1f03e0 	mov	x0, xzr
   80038:	100000c0 	adr	x0, 80050 <trap_to_el1_from_el2>
   8003c:	d51e4020 	msr	elr_el3, x0
   80040:	aa1f03e0 	mov	x0, xzr
   80044:	580003a0 	ldr	x0, 800b8 <halt_core+0xc>
   80048:	d51e4100 	msr	sp_el2, x0
   8004c:	d69f03e0 	eret

0000000000080050 <trap_to_el1_from_el2>:
   80050:	aa1f03e0 	mov	x0, xzr
   80054:	d5181000 	msr	sctlr_el1, x0
   80058:	aa1f03e0 	mov	x0, xzr
   8005c:	d2b00000 	mov	x0, #0x80000000            	// #2147483648
   80060:	d51c1100 	msr	hcr_el2, x0
   80064:	aa1f03e0 	mov	x0, xzr
   80068:	d28000a0 	mov	x0, #0x5                   	// #5
   8006c:	d2807801 	mov	x1, #0x3c0                 	// #960
   80070:	aa010000 	orr	x0, x0, x1
   80074:	d51c4000 	msr	spsr_el2, x0
   80078:	aa1f03e0 	mov	x0, xzr
   8007c:	100000c0 	adr	x0, 80094 <indirect_start_call>
   80080:	d51c4020 	msr	elr_el2, x0
   80084:	aa1f03e0 	mov	x0, xzr
   80088:	58000180 	ldr	x0, 800b8 <halt_core+0xc>
   8008c:	d51c4100 	msr	sp_el1, x0
   80090:	d69f03e0 	eret

0000000000080094 <indirect_start_call>:
   80094:	94000812 	bl	820dc <set_up_bootstrap_page_table_el0>
   80098:	940007ea 	bl	82040 <set_up_bootstrap_page_table>
   8009c:	940007d9 	bl	82000 <set_up_mmu>
   800a0:	58000100 	ldr	x0, 800c0 <halt_core+0x14>
   800a4:	d61f0000 	br	x0

00000000000800a8 <test_spin>:
   800a8:	14000000 	b	800a8 <test_spin>

00000000000800ac <halt_core>:
   800ac:	d503205f 	wfe
   800b0:	17ffffff 	b	800ac <halt_core>
   800b4:	00000000 	udf	#0
   800b8:	00086000 	.inst	0x00086000 ; undefined
   800bc:	00000000 	udf	#0
   800c0:	00083ae8 	.inst	0x00083ae8 ; undefined
	...

0000000000080100 <jump_to_el1_core_one>:
   80100:	d5384240 	mrs	x0, currentel
   80104:	927e0400 	and	x0, x0, #0xc
   80108:	f100201f 	cmp	x0, #0x8
   8010c:	540001a0 	b.eq	80140 <trap_core_1_to_el1_from_el2>  // b.none
   80110:	aa1f03e0 	mov	x0, xzr
   80114:	d2800180 	mov	x0, #0xc                   	// #12
   80118:	d2807801 	mov	x1, #0x3c0                 	// #960
   8011c:	aa010000 	orr	x0, x0, x1
   80120:	d51e4000 	msr	spsr_el3, x0
   80124:	aa1f03e0 	mov	x0, xzr
   80128:	100000c0 	adr	x0, 80140 <trap_core_1_to_el1_from_el2>
   8012c:	d51e4020 	msr	elr_el3, x0
   80130:	aa1f03e0 	mov	x0, xzr
   80134:	58001660 	ldr	x0, 80400 <enable_core3_timer+0x94>
   80138:	d51e4100 	msr	sp_el2, x0
   8013c:	d69f03e0 	eret

0000000000080140 <trap_core_1_to_el1_from_el2>:
   80140:	aa1f03e0 	mov	x0, xzr
   80144:	d5181000 	msr	sctlr_el1, x0
   80148:	aa1f03e0 	mov	x0, xzr
   8014c:	d2b00000 	mov	x0, #0x80000000            	// #2147483648
   80150:	d51c1100 	msr	hcr_el2, x0
   80154:	aa1f03e0 	mov	x0, xzr
   80158:	d28000a0 	mov	x0, #0x5                   	// #5
   8015c:	d2807801 	mov	x1, #0x3c0                 	// #960
   80160:	aa010000 	orr	x0, x0, x1
   80164:	d51c4000 	msr	spsr_el2, x0
   80168:	aa1f03e0 	mov	x0, xzr
   8016c:	100000c0 	adr	x0, 80184 <core_indirect>
   80170:	d51c4020 	msr	elr_el2, x0
   80174:	aa1f03e0 	mov	x0, xzr
   80178:	58001440 	ldr	x0, 80400 <enable_core3_timer+0x94>
   8017c:	d51c4100 	msr	sp_el1, x0
   80180:	d69f03e0 	eret

0000000000080184 <core_indirect>:
   80184:	9400079f 	bl	82000 <set_up_mmu>
   80188:	58001400 	ldr	x0, 80408 <enable_core3_timer+0x9c>
   8018c:	d61f0000 	br	x0

0000000000080190 <trap_core_1_to_el1>:
   80190:	d5384240 	mrs	x0, currentel
   80194:	927e0400 	and	x0, x0, #0xc
   80198:	f100201f 	cmp	x0, #0x8
   8019c:	540001a0 	b.eq	801d0 <aux_core_1>  // b.none
   801a0:	aa1f03e0 	mov	x0, xzr
   801a4:	d2800180 	mov	x0, #0xc                   	// #12
   801a8:	d2807801 	mov	x1, #0x3c0                 	// #960
   801ac:	aa010000 	orr	x0, x0, x1
   801b0:	d51e4000 	msr	spsr_el3, x0
   801b4:	aa1f03e0 	mov	x0, xzr
   801b8:	100000c0 	adr	x0, 801d0 <aux_core_1>
   801bc:	d51e4020 	msr	elr_el3, x0
   801c0:	aa1f03e0 	mov	x0, xzr
   801c4:	580011e0 	ldr	x0, 80400 <enable_core3_timer+0x94>
   801c8:	d51e4100 	msr	sp_el2, x0
   801cc:	d69f03e0 	eret

00000000000801d0 <aux_core_1>:
   801d0:	aa1f03e0 	mov	x0, xzr
   801d4:	d5181000 	msr	sctlr_el1, x0
   801d8:	aa1f03e0 	mov	x0, xzr
   801dc:	d2b00000 	mov	x0, #0x80000000            	// #2147483648
   801e0:	d51c1100 	msr	hcr_el2, x0
   801e4:	aa1f03e0 	mov	x0, xzr
   801e8:	d28000a0 	mov	x0, #0x5                   	// #5
   801ec:	d2807801 	mov	x1, #0x3c0                 	// #960
   801f0:	aa010000 	orr	x0, x0, x1
   801f4:	d51c4000 	msr	spsr_el2, x0
   801f8:	aa1f03e0 	mov	x0, xzr
   801fc:	100000c0 	adr	x0, 80214 <indirect_core_1>
   80200:	d51c4020 	msr	elr_el2, x0
   80204:	aa1f03e0 	mov	x0, xzr
   80208:	58000fc0 	ldr	x0, 80400 <enable_core3_timer+0x94>
   8020c:	d51c4100 	msr	sp_el1, x0
   80210:	d69f03e0 	eret

0000000000080214 <indirect_core_1>:
   80214:	9400077b 	bl	82000 <set_up_mmu>
   80218:	58000f80 	ldr	x0, 80408 <enable_core3_timer+0x9c>
   8021c:	d61f0000 	br	x0

0000000000080220 <trap_core_2_to_el1>:
   80220:	d5384240 	mrs	x0, currentel
   80224:	927e0400 	and	x0, x0, #0xc
   80228:	f100201f 	cmp	x0, #0x8
   8022c:	540001a0 	b.eq	80260 <aux_core_2>  // b.none
   80230:	aa1f03e0 	mov	x0, xzr
   80234:	d2800180 	mov	x0, #0xc                   	// #12
   80238:	d2807801 	mov	x1, #0x3c0                 	// #960
   8023c:	aa010000 	orr	x0, x0, x1
   80240:	d51e4000 	msr	spsr_el3, x0
   80244:	aa1f03e0 	mov	x0, xzr
   80248:	100000c0 	adr	x0, 80260 <aux_core_2>
   8024c:	d51e4020 	msr	elr_el3, x0
   80250:	aa1f03e0 	mov	x0, xzr
   80254:	58000de0 	ldr	x0, 80410 <enable_core3_timer+0xa4>
   80258:	d51e4100 	msr	sp_el2, x0
   8025c:	d69f03e0 	eret

0000000000080260 <aux_core_2>:
   80260:	aa1f03e0 	mov	x0, xzr
   80264:	d5181000 	msr	sctlr_el1, x0
   80268:	aa1f03e0 	mov	x0, xzr
   8026c:	d2b00000 	mov	x0, #0x80000000            	// #2147483648
   80270:	d51c1100 	msr	hcr_el2, x0
   80274:	aa1f03e0 	mov	x0, xzr
   80278:	d28000a0 	mov	x0, #0x5                   	// #5
   8027c:	d2807801 	mov	x1, #0x3c0                 	// #960
   80280:	aa010000 	orr	x0, x0, x1
   80284:	d51c4000 	msr	spsr_el2, x0
   80288:	aa1f03e0 	mov	x0, xzr
   8028c:	100000c0 	adr	x0, 802a4 <indirect_core_2>
   80290:	d51c4020 	msr	elr_el2, x0
   80294:	aa1f03e0 	mov	x0, xzr
   80298:	58000bc0 	ldr	x0, 80410 <enable_core3_timer+0xa4>
   8029c:	d51c4100 	msr	sp_el1, x0
   802a0:	d69f03e0 	eret

00000000000802a4 <indirect_core_2>:
   802a4:	94000757 	bl	82000 <set_up_mmu>
   802a8:	58000b00 	ldr	x0, 80408 <enable_core3_timer+0x9c>
   802ac:	d61f0000 	br	x0

00000000000802b0 <trap_core_3_to_el1>:
   802b0:	d5384240 	mrs	x0, currentel
   802b4:	927e0400 	and	x0, x0, #0xc
   802b8:	f100201f 	cmp	x0, #0x8
   802bc:	540001a0 	b.eq	802f0 <aux_core_3>  // b.none
   802c0:	aa1f03e0 	mov	x0, xzr
   802c4:	d2800180 	mov	x0, #0xc                   	// #12
   802c8:	d2807801 	mov	x1, #0x3c0                 	// #960
   802cc:	aa010000 	orr	x0, x0, x1
   802d0:	d51e4000 	msr	spsr_el3, x0
   802d4:	aa1f03e0 	mov	x0, xzr
   802d8:	100000c0 	adr	x0, 802f0 <aux_core_3>
   802dc:	d51e4020 	msr	elr_el3, x0
   802e0:	aa1f03e0 	mov	x0, xzr
   802e4:	580009a0 	ldr	x0, 80418 <enable_core3_timer+0xac>
   802e8:	d51e4100 	msr	sp_el2, x0
   802ec:	d69f03e0 	eret

00000000000802f0 <aux_core_3>:
   802f0:	aa1f03e0 	mov	x0, xzr
   802f4:	d5181000 	msr	sctlr_el1, x0
   802f8:	aa1f03e0 	mov	x0, xzr
   802fc:	d2b00000 	mov	x0, #0x80000000            	// #2147483648
   80300:	d51c1100 	msr	hcr_el2, x0
   80304:	aa1f03e0 	mov	x0, xzr
   80308:	d28000a0 	mov	x0, #0x5                   	// #5
   8030c:	d2807801 	mov	x1, #0x3c0                 	// #960
   80310:	aa010000 	orr	x0, x0, x1
   80314:	d51c4000 	msr	spsr_el2, x0
   80318:	aa1f03e0 	mov	x0, xzr
   8031c:	100000c0 	adr	x0, 80334 <indirect_core_3>
   80320:	d51c4020 	msr	elr_el2, x0
   80324:	aa1f03e0 	mov	x0, xzr
   80328:	58000780 	ldr	x0, 80418 <enable_core3_timer+0xac>
   8032c:	d51c4100 	msr	sp_el1, x0
   80330:	d69f03e0 	eret

0000000000080334 <indirect_core_3>:
   80334:	94000733 	bl	82000 <set_up_mmu>
   80338:	58000680 	ldr	x0, 80408 <enable_core3_timer+0x9c>
   8033c:	d61f0000 	br	x0

0000000000080340 <enable_core0_timer>:
   80340:	58000700 	ldr	x0, 80420 <enable_core3_timer+0xb4>
   80344:	d2800041 	mov	x1, #0x2                   	// #2
   80348:	f9000001 	str	x1, [x0]
   8034c:	d65f03c0 	ret

0000000000080350 <read_core0_irq_status>:
   80350:	580006c1 	ldr	x1, 80428 <enable_core3_timer+0xbc>
   80354:	f9400020 	ldr	x0, [x1]
   80358:	d65f03c0 	ret

000000000008035c <read_core0_timer_status>:
   8035c:	d53be220 	mrs	x0, cntp_ctl_el0
   80360:	d65f03c0 	ret

0000000000080364 <enable_core1_irq_status>:
   80364:	d65f03c0 	ret

0000000000080368 <enable_core2_timer>:
   80368:	d65f03c0 	ret

000000000008036c <enable_core3_timer>:
   8036c:	d65f03c0 	ret
   80370:	d503201f 	nop
   80374:	d503201f 	nop
   80378:	d503201f 	nop
   8037c:	d503201f 	nop
   80380:	d503201f 	nop
   80384:	d503201f 	nop
   80388:	d503201f 	nop
   8038c:	d503201f 	nop
   80390:	d503201f 	nop
   80394:	d503201f 	nop
   80398:	d503201f 	nop
   8039c:	d503201f 	nop
   803a0:	d503201f 	nop
   803a4:	d503201f 	nop
   803a8:	d503201f 	nop
   803ac:	d503201f 	nop
   803b0:	d503201f 	nop
   803b4:	d503201f 	nop
   803b8:	d503201f 	nop
   803bc:	d503201f 	nop
   803c0:	d503201f 	nop
   803c4:	d503201f 	nop
   803c8:	d503201f 	nop
   803cc:	d503201f 	nop
   803d0:	d503201f 	nop
   803d4:	d503201f 	nop
   803d8:	d503201f 	nop
   803dc:	d503201f 	nop
   803e0:	d503201f 	nop
   803e4:	d503201f 	nop
   803e8:	d503201f 	nop
   803ec:	d503201f 	nop
   803f0:	d503201f 	nop
   803f4:	d503201f 	nop
   803f8:	d503201f 	nop
   803fc:	d503201f 	nop
   80400:	00088000 	.inst	0x00088000 ; undefined
   80404:	00000000 	udf	#0
   80408:	00083264 	.inst	0x00083264 ; undefined
   8040c:	00000000 	udf	#0
   80410:	0008a000 	.inst	0x0008a000 ; undefined
   80414:	00000000 	udf	#0
   80418:	0008c000 	.inst	0x0008c000 ; undefined
   8041c:	00000000 	udf	#0
   80420:	40000040 	.inst	0x40000040 ; undefined
   80424:	ffff0000 	.inst	0xffff0000 ; undefined
   80428:	40000060 	.inst	0x40000060 ; undefined
   8042c:	ffff0000 	.inst	0xffff0000 ; undefined
	...

0000000000080800 <interrupt_init>:
   80800:	d10023ff 	sub	sp, sp, #0x8
   80804:	f90003fe 	str	x30, [sp]
   80808:	58008a40 	ldr	x0, 81950 <enable_irq+0xc>
   8080c:	d518c000 	msr	vbar_el1, x0
   80810:	f94003fe 	ldr	x30, [sp]
   80814:	910023ff 	add	sp, sp, #0x8
   80818:	d65f03c0 	ret
   8081c:	d503201f 	nop
   80820:	d503201f 	nop
   80824:	d503201f 	nop
   80828:	d503201f 	nop
   8082c:	d503201f 	nop
   80830:	d503201f 	nop
   80834:	d503201f 	nop
   80838:	d503201f 	nop
   8083c:	d503201f 	nop
   80840:	d503201f 	nop
   80844:	d503201f 	nop
   80848:	d503201f 	nop
   8084c:	d503201f 	nop
   80850:	d503201f 	nop
   80854:	d503201f 	nop
   80858:	d503201f 	nop
   8085c:	d503201f 	nop
   80860:	d503201f 	nop
   80864:	d503201f 	nop
   80868:	d503201f 	nop
   8086c:	d503201f 	nop
   80870:	d503201f 	nop
   80874:	d503201f 	nop
   80878:	d503201f 	nop
   8087c:	d503201f 	nop
   80880:	d503201f 	nop
   80884:	d503201f 	nop
   80888:	d503201f 	nop
   8088c:	d503201f 	nop
   80890:	d503201f 	nop
   80894:	d503201f 	nop
   80898:	d503201f 	nop
   8089c:	d503201f 	nop
   808a0:	d503201f 	nop
   808a4:	d503201f 	nop
   808a8:	d503201f 	nop
   808ac:	d503201f 	nop
   808b0:	d503201f 	nop
   808b4:	d503201f 	nop
   808b8:	d503201f 	nop
   808bc:	d503201f 	nop
   808c0:	d503201f 	nop
   808c4:	d503201f 	nop
   808c8:	d503201f 	nop
   808cc:	d503201f 	nop
   808d0:	d503201f 	nop
   808d4:	d503201f 	nop
   808d8:	d503201f 	nop
   808dc:	d503201f 	nop
   808e0:	d503201f 	nop
   808e4:	d503201f 	nop
   808e8:	d503201f 	nop
   808ec:	d503201f 	nop
   808f0:	d503201f 	nop
   808f4:	d503201f 	nop
   808f8:	d503201f 	nop
   808fc:	d503201f 	nop
   80900:	d503201f 	nop
   80904:	d503201f 	nop
   80908:	d503201f 	nop
   8090c:	d503201f 	nop
   80910:	d503201f 	nop
   80914:	d503201f 	nop
   80918:	d503201f 	nop
   8091c:	d503201f 	nop
   80920:	d503201f 	nop
   80924:	d503201f 	nop
   80928:	d503201f 	nop
   8092c:	d503201f 	nop
   80930:	d503201f 	nop
   80934:	d503201f 	nop
   80938:	d503201f 	nop
   8093c:	d503201f 	nop
   80940:	d503201f 	nop
   80944:	d503201f 	nop
   80948:	d503201f 	nop
   8094c:	d503201f 	nop
   80950:	d503201f 	nop
   80954:	d503201f 	nop
   80958:	d503201f 	nop
   8095c:	d503201f 	nop
   80960:	d503201f 	nop
   80964:	d503201f 	nop
   80968:	d503201f 	nop
   8096c:	d503201f 	nop
   80970:	d503201f 	nop
   80974:	d503201f 	nop
   80978:	d503201f 	nop
   8097c:	d503201f 	nop
   80980:	d503201f 	nop
   80984:	d503201f 	nop
   80988:	d503201f 	nop
   8098c:	d503201f 	nop
   80990:	d503201f 	nop
   80994:	d503201f 	nop
   80998:	d503201f 	nop
   8099c:	d503201f 	nop
   809a0:	d503201f 	nop
   809a4:	d503201f 	nop
   809a8:	d503201f 	nop
   809ac:	d503201f 	nop
   809b0:	d503201f 	nop
   809b4:	d503201f 	nop
   809b8:	d503201f 	nop
   809bc:	d503201f 	nop
   809c0:	d503201f 	nop
   809c4:	d503201f 	nop
   809c8:	d503201f 	nop
   809cc:	d503201f 	nop
   809d0:	d503201f 	nop
   809d4:	d503201f 	nop
   809d8:	d503201f 	nop
   809dc:	d503201f 	nop
   809e0:	d503201f 	nop
   809e4:	d503201f 	nop
   809e8:	d503201f 	nop
   809ec:	d503201f 	nop
   809f0:	d503201f 	nop
   809f4:	d503201f 	nop
   809f8:	d503201f 	nop
   809fc:	d503201f 	nop
   80a00:	d503201f 	nop
   80a04:	d503201f 	nop
   80a08:	d503201f 	nop
   80a0c:	d503201f 	nop
   80a10:	d503201f 	nop
   80a14:	d503201f 	nop
   80a18:	d503201f 	nop
   80a1c:	d503201f 	nop
   80a20:	d503201f 	nop
   80a24:	d503201f 	nop
   80a28:	d503201f 	nop
   80a2c:	d503201f 	nop
   80a30:	d503201f 	nop
   80a34:	d503201f 	nop
   80a38:	d503201f 	nop
   80a3c:	d503201f 	nop
   80a40:	d503201f 	nop
   80a44:	d503201f 	nop
   80a48:	d503201f 	nop
   80a4c:	d503201f 	nop
   80a50:	d503201f 	nop
   80a54:	d503201f 	nop
   80a58:	d503201f 	nop
   80a5c:	d503201f 	nop
   80a60:	d503201f 	nop
   80a64:	d503201f 	nop
   80a68:	d503201f 	nop
   80a6c:	d503201f 	nop
   80a70:	d503201f 	nop
   80a74:	d503201f 	nop
   80a78:	d503201f 	nop
   80a7c:	d503201f 	nop
   80a80:	d503201f 	nop
   80a84:	d503201f 	nop
   80a88:	d503201f 	nop
   80a8c:	d503201f 	nop
   80a90:	d503201f 	nop
   80a94:	d503201f 	nop
   80a98:	d503201f 	nop
   80a9c:	d503201f 	nop
   80aa0:	d503201f 	nop
   80aa4:	d503201f 	nop
   80aa8:	d503201f 	nop
   80aac:	d503201f 	nop
   80ab0:	d503201f 	nop
   80ab4:	d503201f 	nop
   80ab8:	d503201f 	nop
   80abc:	d503201f 	nop
   80ac0:	d503201f 	nop
   80ac4:	d503201f 	nop
   80ac8:	d503201f 	nop
   80acc:	d503201f 	nop
   80ad0:	d503201f 	nop
   80ad4:	d503201f 	nop
   80ad8:	d503201f 	nop
   80adc:	d503201f 	nop
   80ae0:	d503201f 	nop
   80ae4:	d503201f 	nop
   80ae8:	d503201f 	nop
   80aec:	d503201f 	nop
   80af0:	d503201f 	nop
   80af4:	d503201f 	nop
   80af8:	d503201f 	nop
   80afc:	d503201f 	nop
   80b00:	d503201f 	nop
   80b04:	d503201f 	nop
   80b08:	d503201f 	nop
   80b0c:	d503201f 	nop
   80b10:	d503201f 	nop
   80b14:	d503201f 	nop
   80b18:	d503201f 	nop
   80b1c:	d503201f 	nop
   80b20:	d503201f 	nop
   80b24:	d503201f 	nop
   80b28:	d503201f 	nop
   80b2c:	d503201f 	nop
   80b30:	d503201f 	nop
   80b34:	d503201f 	nop
   80b38:	d503201f 	nop
   80b3c:	d503201f 	nop
   80b40:	d503201f 	nop
   80b44:	d503201f 	nop
   80b48:	d503201f 	nop
   80b4c:	d503201f 	nop
   80b50:	d503201f 	nop
   80b54:	d503201f 	nop
   80b58:	d503201f 	nop
   80b5c:	d503201f 	nop
   80b60:	d503201f 	nop
   80b64:	d503201f 	nop
   80b68:	d503201f 	nop
   80b6c:	d503201f 	nop
   80b70:	d503201f 	nop
   80b74:	d503201f 	nop
   80b78:	d503201f 	nop
   80b7c:	d503201f 	nop
   80b80:	d503201f 	nop
   80b84:	d503201f 	nop
   80b88:	d503201f 	nop
   80b8c:	d503201f 	nop
   80b90:	d503201f 	nop
   80b94:	d503201f 	nop
   80b98:	d503201f 	nop
   80b9c:	d503201f 	nop
   80ba0:	d503201f 	nop
   80ba4:	d503201f 	nop
   80ba8:	d503201f 	nop
   80bac:	d503201f 	nop
   80bb0:	d503201f 	nop
   80bb4:	d503201f 	nop
   80bb8:	d503201f 	nop
   80bbc:	d503201f 	nop
   80bc0:	d503201f 	nop
   80bc4:	d503201f 	nop
   80bc8:	d503201f 	nop
   80bcc:	d503201f 	nop
   80bd0:	d503201f 	nop
   80bd4:	d503201f 	nop
   80bd8:	d503201f 	nop
   80bdc:	d503201f 	nop
   80be0:	d503201f 	nop
   80be4:	d503201f 	nop
   80be8:	d503201f 	nop
   80bec:	d503201f 	nop
   80bf0:	d503201f 	nop
   80bf4:	d503201f 	nop
   80bf8:	d503201f 	nop
   80bfc:	d503201f 	nop
   80c00:	d503201f 	nop
   80c04:	d503201f 	nop
   80c08:	d503201f 	nop
   80c0c:	d503201f 	nop
   80c10:	d503201f 	nop
   80c14:	d503201f 	nop
   80c18:	d503201f 	nop
   80c1c:	d503201f 	nop
   80c20:	d503201f 	nop
   80c24:	d503201f 	nop
   80c28:	d503201f 	nop
   80c2c:	d503201f 	nop
   80c30:	d503201f 	nop
   80c34:	d503201f 	nop
   80c38:	d503201f 	nop
   80c3c:	d503201f 	nop
   80c40:	d503201f 	nop
   80c44:	d503201f 	nop
   80c48:	d503201f 	nop
   80c4c:	d503201f 	nop
   80c50:	d503201f 	nop
   80c54:	d503201f 	nop
   80c58:	d503201f 	nop
   80c5c:	d503201f 	nop
   80c60:	d503201f 	nop
   80c64:	d503201f 	nop
   80c68:	d503201f 	nop
   80c6c:	d503201f 	nop
   80c70:	d503201f 	nop
   80c74:	d503201f 	nop
   80c78:	d503201f 	nop
   80c7c:	d503201f 	nop
   80c80:	d503201f 	nop
   80c84:	d503201f 	nop
   80c88:	d503201f 	nop
   80c8c:	d503201f 	nop
   80c90:	d503201f 	nop
   80c94:	d503201f 	nop
   80c98:	d503201f 	nop
   80c9c:	d503201f 	nop
   80ca0:	d503201f 	nop
   80ca4:	d503201f 	nop
   80ca8:	d503201f 	nop
   80cac:	d503201f 	nop
   80cb0:	d503201f 	nop
   80cb4:	d503201f 	nop
   80cb8:	d503201f 	nop
   80cbc:	d503201f 	nop
   80cc0:	d503201f 	nop
   80cc4:	d503201f 	nop
   80cc8:	d503201f 	nop
   80ccc:	d503201f 	nop
   80cd0:	d503201f 	nop
   80cd4:	d503201f 	nop
   80cd8:	d503201f 	nop
   80cdc:	d503201f 	nop
   80ce0:	d503201f 	nop
   80ce4:	d503201f 	nop
   80ce8:	d503201f 	nop
   80cec:	d503201f 	nop
   80cf0:	d503201f 	nop
   80cf4:	d503201f 	nop
   80cf8:	d503201f 	nop
   80cfc:	d503201f 	nop
   80d00:	d503201f 	nop
   80d04:	d503201f 	nop
   80d08:	d503201f 	nop
   80d0c:	d503201f 	nop
   80d10:	d503201f 	nop
   80d14:	d503201f 	nop
   80d18:	d503201f 	nop
   80d1c:	d503201f 	nop
   80d20:	d503201f 	nop
   80d24:	d503201f 	nop
   80d28:	d503201f 	nop
   80d2c:	d503201f 	nop
   80d30:	d503201f 	nop
   80d34:	d503201f 	nop
   80d38:	d503201f 	nop
   80d3c:	d503201f 	nop
   80d40:	d503201f 	nop
   80d44:	d503201f 	nop
   80d48:	d503201f 	nop
   80d4c:	d503201f 	nop
   80d50:	d503201f 	nop
   80d54:	d503201f 	nop
   80d58:	d503201f 	nop
   80d5c:	d503201f 	nop
   80d60:	d503201f 	nop
   80d64:	d503201f 	nop
   80d68:	d503201f 	nop
   80d6c:	d503201f 	nop
   80d70:	d503201f 	nop
   80d74:	d503201f 	nop
   80d78:	d503201f 	nop
   80d7c:	d503201f 	nop
   80d80:	d503201f 	nop
   80d84:	d503201f 	nop
   80d88:	d503201f 	nop
   80d8c:	d503201f 	nop
   80d90:	d503201f 	nop
   80d94:	d503201f 	nop
   80d98:	d503201f 	nop
   80d9c:	d503201f 	nop
   80da0:	d503201f 	nop
   80da4:	d503201f 	nop
   80da8:	d503201f 	nop
   80dac:	d503201f 	nop
   80db0:	d503201f 	nop
   80db4:	d503201f 	nop
   80db8:	d503201f 	nop
   80dbc:	d503201f 	nop
   80dc0:	d503201f 	nop
   80dc4:	d503201f 	nop
   80dc8:	d503201f 	nop
   80dcc:	d503201f 	nop
   80dd0:	d503201f 	nop
   80dd4:	d503201f 	nop
   80dd8:	d503201f 	nop
   80ddc:	d503201f 	nop
   80de0:	d503201f 	nop
   80de4:	d503201f 	nop
   80de8:	d503201f 	nop
   80dec:	d503201f 	nop
   80df0:	d503201f 	nop
   80df4:	d503201f 	nop
   80df8:	d503201f 	nop
   80dfc:	d503201f 	nop
   80e00:	d503201f 	nop
   80e04:	d503201f 	nop
   80e08:	d503201f 	nop
   80e0c:	d503201f 	nop
   80e10:	d503201f 	nop
   80e14:	d503201f 	nop
   80e18:	d503201f 	nop
   80e1c:	d503201f 	nop
   80e20:	d503201f 	nop
   80e24:	d503201f 	nop
   80e28:	d503201f 	nop
   80e2c:	d503201f 	nop
   80e30:	d503201f 	nop
   80e34:	d503201f 	nop
   80e38:	d503201f 	nop
   80e3c:	d503201f 	nop
   80e40:	d503201f 	nop
   80e44:	d503201f 	nop
   80e48:	d503201f 	nop
   80e4c:	d503201f 	nop
   80e50:	d503201f 	nop
   80e54:	d503201f 	nop
   80e58:	d503201f 	nop
   80e5c:	d503201f 	nop
   80e60:	d503201f 	nop
   80e64:	d503201f 	nop
   80e68:	d503201f 	nop
   80e6c:	d503201f 	nop
   80e70:	d503201f 	nop
   80e74:	d503201f 	nop
   80e78:	d503201f 	nop
   80e7c:	d503201f 	nop
   80e80:	d503201f 	nop
   80e84:	d503201f 	nop
   80e88:	d503201f 	nop
   80e8c:	d503201f 	nop
   80e90:	d503201f 	nop
   80e94:	d503201f 	nop
   80e98:	d503201f 	nop
   80e9c:	d503201f 	nop
   80ea0:	d503201f 	nop
   80ea4:	d503201f 	nop
   80ea8:	d503201f 	nop
   80eac:	d503201f 	nop
   80eb0:	d503201f 	nop
   80eb4:	d503201f 	nop
   80eb8:	d503201f 	nop
   80ebc:	d503201f 	nop
   80ec0:	d503201f 	nop
   80ec4:	d503201f 	nop
   80ec8:	d503201f 	nop
   80ecc:	d503201f 	nop
   80ed0:	d503201f 	nop
   80ed4:	d503201f 	nop
   80ed8:	d503201f 	nop
   80edc:	d503201f 	nop
   80ee0:	d503201f 	nop
   80ee4:	d503201f 	nop
   80ee8:	d503201f 	nop
   80eec:	d503201f 	nop
   80ef0:	d503201f 	nop
   80ef4:	d503201f 	nop
   80ef8:	d503201f 	nop
   80efc:	d503201f 	nop
   80f00:	d503201f 	nop
   80f04:	d503201f 	nop
   80f08:	d503201f 	nop
   80f0c:	d503201f 	nop
   80f10:	d503201f 	nop
   80f14:	d503201f 	nop
   80f18:	d503201f 	nop
   80f1c:	d503201f 	nop
   80f20:	d503201f 	nop
   80f24:	d503201f 	nop
   80f28:	d503201f 	nop
   80f2c:	d503201f 	nop
   80f30:	d503201f 	nop
   80f34:	d503201f 	nop
   80f38:	d503201f 	nop
   80f3c:	d503201f 	nop
   80f40:	d503201f 	nop
   80f44:	d503201f 	nop
   80f48:	d503201f 	nop
   80f4c:	d503201f 	nop
   80f50:	d503201f 	nop
   80f54:	d503201f 	nop
   80f58:	d503201f 	nop
   80f5c:	d503201f 	nop
   80f60:	d503201f 	nop
   80f64:	d503201f 	nop
   80f68:	d503201f 	nop
   80f6c:	d503201f 	nop
   80f70:	d503201f 	nop
   80f74:	d503201f 	nop
   80f78:	d503201f 	nop
   80f7c:	d503201f 	nop
   80f80:	d503201f 	nop
   80f84:	d503201f 	nop
   80f88:	d503201f 	nop
   80f8c:	d503201f 	nop
   80f90:	d503201f 	nop
   80f94:	d503201f 	nop
   80f98:	d503201f 	nop
   80f9c:	d503201f 	nop
   80fa0:	d503201f 	nop
   80fa4:	d503201f 	nop
   80fa8:	d503201f 	nop
   80fac:	d503201f 	nop
   80fb0:	d503201f 	nop
   80fb4:	d503201f 	nop
   80fb8:	d503201f 	nop
   80fbc:	d503201f 	nop
   80fc0:	d503201f 	nop
   80fc4:	d503201f 	nop
   80fc8:	d503201f 	nop
   80fcc:	d503201f 	nop
   80fd0:	d503201f 	nop
   80fd4:	d503201f 	nop
   80fd8:	d503201f 	nop
   80fdc:	d503201f 	nop
   80fe0:	d503201f 	nop
   80fe4:	d503201f 	nop
   80fe8:	d503201f 	nop
   80fec:	d503201f 	nop
   80ff0:	d503201f 	nop
   80ff4:	d503201f 	nop
   80ff8:	d503201f 	nop
   80ffc:	d503201f 	nop

0000000000081000 <ivt_table_start_addr>:
   81000:	1400024f 	b	8193c <generic_handler>
   81004:	d503201f 	nop
   81008:	d503201f 	nop
   8100c:	d503201f 	nop
   81010:	d503201f 	nop
   81014:	d503201f 	nop
   81018:	d503201f 	nop
   8101c:	d503201f 	nop
   81020:	d503201f 	nop
   81024:	d503201f 	nop
   81028:	d503201f 	nop
   8102c:	d503201f 	nop
   81030:	d503201f 	nop
   81034:	d503201f 	nop
   81038:	d503201f 	nop
   8103c:	d503201f 	nop
   81040:	d503201f 	nop
   81044:	d503201f 	nop
   81048:	d503201f 	nop
   8104c:	d503201f 	nop
   81050:	d503201f 	nop
   81054:	d503201f 	nop
   81058:	d503201f 	nop
   8105c:	d503201f 	nop
   81060:	d503201f 	nop
   81064:	d503201f 	nop
   81068:	d503201f 	nop
   8106c:	d503201f 	nop
   81070:	d503201f 	nop
   81074:	d503201f 	nop
   81078:	d503201f 	nop
   8107c:	d503201f 	nop

0000000000081080 <curret_el_sp0_irq>:
   81080:	1400022f 	b	8193c <generic_handler>
   81084:	d503201f 	nop
   81088:	d503201f 	nop
   8108c:	d503201f 	nop
   81090:	d503201f 	nop
   81094:	d503201f 	nop
   81098:	d503201f 	nop
   8109c:	d503201f 	nop
   810a0:	d503201f 	nop
   810a4:	d503201f 	nop
   810a8:	d503201f 	nop
   810ac:	d503201f 	nop
   810b0:	d503201f 	nop
   810b4:	d503201f 	nop
   810b8:	d503201f 	nop
   810bc:	d503201f 	nop
   810c0:	d503201f 	nop
   810c4:	d503201f 	nop
   810c8:	d503201f 	nop
   810cc:	d503201f 	nop
   810d0:	d503201f 	nop
   810d4:	d503201f 	nop
   810d8:	d503201f 	nop
   810dc:	d503201f 	nop
   810e0:	d503201f 	nop
   810e4:	d503201f 	nop
   810e8:	d503201f 	nop
   810ec:	d503201f 	nop
   810f0:	d503201f 	nop
   810f4:	d503201f 	nop
   810f8:	d503201f 	nop
   810fc:	d503201f 	nop

0000000000081100 <current_el_sp0_fiq>:
   81100:	1400020f 	b	8193c <generic_handler>
   81104:	d503201f 	nop
   81108:	d503201f 	nop
   8110c:	d503201f 	nop
   81110:	d503201f 	nop
   81114:	d503201f 	nop
   81118:	d503201f 	nop
   8111c:	d503201f 	nop
   81120:	d503201f 	nop
   81124:	d503201f 	nop
   81128:	d503201f 	nop
   8112c:	d503201f 	nop
   81130:	d503201f 	nop
   81134:	d503201f 	nop
   81138:	d503201f 	nop
   8113c:	d503201f 	nop
   81140:	d503201f 	nop
   81144:	d503201f 	nop
   81148:	d503201f 	nop
   8114c:	d503201f 	nop
   81150:	d503201f 	nop
   81154:	d503201f 	nop
   81158:	d503201f 	nop
   8115c:	d503201f 	nop
   81160:	d503201f 	nop
   81164:	d503201f 	nop
   81168:	d503201f 	nop
   8116c:	d503201f 	nop
   81170:	d503201f 	nop
   81174:	d503201f 	nop
   81178:	d503201f 	nop
   8117c:	d503201f 	nop

0000000000081180 <current_el_sp0_serror>:
   81180:	140001ef 	b	8193c <generic_handler>
   81184:	d503201f 	nop
   81188:	d503201f 	nop
   8118c:	d503201f 	nop
   81190:	d503201f 	nop
   81194:	d503201f 	nop
   81198:	d503201f 	nop
   8119c:	d503201f 	nop
   811a0:	d503201f 	nop
   811a4:	d503201f 	nop
   811a8:	d503201f 	nop
   811ac:	d503201f 	nop
   811b0:	d503201f 	nop
   811b4:	d503201f 	nop
   811b8:	d503201f 	nop
   811bc:	d503201f 	nop
   811c0:	d503201f 	nop
   811c4:	d503201f 	nop
   811c8:	d503201f 	nop
   811cc:	d503201f 	nop
   811d0:	d503201f 	nop
   811d4:	d503201f 	nop
   811d8:	d503201f 	nop
   811dc:	d503201f 	nop
   811e0:	d503201f 	nop
   811e4:	d503201f 	nop
   811e8:	d503201f 	nop
   811ec:	d503201f 	nop
   811f0:	d503201f 	nop
   811f4:	d503201f 	nop
   811f8:	d503201f 	nop
   811fc:	d503201f 	nop

0000000000081200 <curret_el_sp1_sync>:
   81200:	14000198 	b	81860 <sync_handler>
   81204:	d503201f 	nop
   81208:	d503201f 	nop
   8120c:	d503201f 	nop
   81210:	d503201f 	nop
   81214:	d503201f 	nop
   81218:	d503201f 	nop
   8121c:	d503201f 	nop
   81220:	d503201f 	nop
   81224:	d503201f 	nop
   81228:	d503201f 	nop
   8122c:	d503201f 	nop
   81230:	d503201f 	nop
   81234:	d503201f 	nop
   81238:	d503201f 	nop
   8123c:	d503201f 	nop
   81240:	d503201f 	nop
   81244:	d503201f 	nop
   81248:	d503201f 	nop
   8124c:	d503201f 	nop
   81250:	d503201f 	nop
   81254:	d503201f 	nop
   81258:	d503201f 	nop
   8125c:	d503201f 	nop
   81260:	d503201f 	nop
   81264:	d503201f 	nop
   81268:	d503201f 	nop
   8126c:	d503201f 	nop
   81270:	d503201f 	nop
   81274:	d503201f 	nop
   81278:	d503201f 	nop
   8127c:	d503201f 	nop

0000000000081280 <current_el_sp1_irq>:
   81280:	14000141 	b	81784 <irq_handler>
   81284:	d503201f 	nop
   81288:	d503201f 	nop
   8128c:	d503201f 	nop
   81290:	d503201f 	nop
   81294:	d503201f 	nop
   81298:	d503201f 	nop
   8129c:	d503201f 	nop
   812a0:	d503201f 	nop
   812a4:	d503201f 	nop
   812a8:	d503201f 	nop
   812ac:	d503201f 	nop
   812b0:	d503201f 	nop
   812b4:	d503201f 	nop
   812b8:	d503201f 	nop
   812bc:	d503201f 	nop
   812c0:	d503201f 	nop
   812c4:	d503201f 	nop
   812c8:	d503201f 	nop
   812cc:	d503201f 	nop
   812d0:	d503201f 	nop
   812d4:	d503201f 	nop
   812d8:	d503201f 	nop
   812dc:	d503201f 	nop
   812e0:	d503201f 	nop
   812e4:	d503201f 	nop
   812e8:	d503201f 	nop
   812ec:	d503201f 	nop
   812f0:	d503201f 	nop
   812f4:	d503201f 	nop
   812f8:	d503201f 	nop
   812fc:	d503201f 	nop

0000000000081300 <current_el_sp1_fiq>:
   81300:	1400018f 	b	8193c <generic_handler>
   81304:	d503201f 	nop
   81308:	d503201f 	nop
   8130c:	d503201f 	nop
   81310:	d503201f 	nop
   81314:	d503201f 	nop
   81318:	d503201f 	nop
   8131c:	d503201f 	nop
   81320:	d503201f 	nop
   81324:	d503201f 	nop
   81328:	d503201f 	nop
   8132c:	d503201f 	nop
   81330:	d503201f 	nop
   81334:	d503201f 	nop
   81338:	d503201f 	nop
   8133c:	d503201f 	nop
   81340:	d503201f 	nop
   81344:	d503201f 	nop
   81348:	d503201f 	nop
   8134c:	d503201f 	nop
   81350:	d503201f 	nop
   81354:	d503201f 	nop
   81358:	d503201f 	nop
   8135c:	d503201f 	nop
   81360:	d503201f 	nop
   81364:	d503201f 	nop
   81368:	d503201f 	nop
   8136c:	d503201f 	nop
   81370:	d503201f 	nop
   81374:	d503201f 	nop
   81378:	d503201f 	nop
   8137c:	d503201f 	nop

0000000000081380 <curret_el_sp1_serror>:
   81380:	1400016f 	b	8193c <generic_handler>
   81384:	d503201f 	nop
   81388:	d503201f 	nop
   8138c:	d503201f 	nop
   81390:	d503201f 	nop
   81394:	d503201f 	nop
   81398:	d503201f 	nop
   8139c:	d503201f 	nop
   813a0:	d503201f 	nop
   813a4:	d503201f 	nop
   813a8:	d503201f 	nop
   813ac:	d503201f 	nop
   813b0:	d503201f 	nop
   813b4:	d503201f 	nop
   813b8:	d503201f 	nop
   813bc:	d503201f 	nop
   813c0:	d503201f 	nop
   813c4:	d503201f 	nop
   813c8:	d503201f 	nop
   813cc:	d503201f 	nop
   813d0:	d503201f 	nop
   813d4:	d503201f 	nop
   813d8:	d503201f 	nop
   813dc:	d503201f 	nop
   813e0:	d503201f 	nop
   813e4:	d503201f 	nop
   813e8:	d503201f 	nop
   813ec:	d503201f 	nop
   813f0:	d503201f 	nop
   813f4:	d503201f 	nop
   813f8:	d503201f 	nop
   813fc:	d503201f 	nop

0000000000081400 <lower_el_aarch64_sync>:
   81400:	1400014f 	b	8193c <generic_handler>
   81404:	d503201f 	nop
   81408:	d503201f 	nop
   8140c:	d503201f 	nop
   81410:	d503201f 	nop
   81414:	d503201f 	nop
   81418:	d503201f 	nop
   8141c:	d503201f 	nop
   81420:	d503201f 	nop
   81424:	d503201f 	nop
   81428:	d503201f 	nop
   8142c:	d503201f 	nop
   81430:	d503201f 	nop
   81434:	d503201f 	nop
   81438:	d503201f 	nop
   8143c:	d503201f 	nop
   81440:	d503201f 	nop
   81444:	d503201f 	nop
   81448:	d503201f 	nop
   8144c:	d503201f 	nop
   81450:	d503201f 	nop
   81454:	d503201f 	nop
   81458:	d503201f 	nop
   8145c:	d503201f 	nop
   81460:	d503201f 	nop
   81464:	d503201f 	nop
   81468:	d503201f 	nop
   8146c:	d503201f 	nop
   81470:	d503201f 	nop
   81474:	d503201f 	nop
   81478:	d503201f 	nop
   8147c:	d503201f 	nop

0000000000081480 <lower_el_aarch64_irq>:
   81480:	1400012f 	b	8193c <generic_handler>
   81484:	d503201f 	nop
   81488:	d503201f 	nop
   8148c:	d503201f 	nop
   81490:	d503201f 	nop
   81494:	d503201f 	nop
   81498:	d503201f 	nop
   8149c:	d503201f 	nop
   814a0:	d503201f 	nop
   814a4:	d503201f 	nop
   814a8:	d503201f 	nop
   814ac:	d503201f 	nop
   814b0:	d503201f 	nop
   814b4:	d503201f 	nop
   814b8:	d503201f 	nop
   814bc:	d503201f 	nop
   814c0:	d503201f 	nop
   814c4:	d503201f 	nop
   814c8:	d503201f 	nop
   814cc:	d503201f 	nop
   814d0:	d503201f 	nop
   814d4:	d503201f 	nop
   814d8:	d503201f 	nop
   814dc:	d503201f 	nop
   814e0:	d503201f 	nop
   814e4:	d503201f 	nop
   814e8:	d503201f 	nop
   814ec:	d503201f 	nop
   814f0:	d503201f 	nop
   814f4:	d503201f 	nop
   814f8:	d503201f 	nop
   814fc:	d503201f 	nop

0000000000081500 <lower_el_aarch64_fiq>:
   81500:	1400010f 	b	8193c <generic_handler>
   81504:	d503201f 	nop
   81508:	d503201f 	nop
   8150c:	d503201f 	nop
   81510:	d503201f 	nop
   81514:	d503201f 	nop
   81518:	d503201f 	nop
   8151c:	d503201f 	nop
   81520:	d503201f 	nop
   81524:	d503201f 	nop
   81528:	d503201f 	nop
   8152c:	d503201f 	nop
   81530:	d503201f 	nop
   81534:	d503201f 	nop
   81538:	d503201f 	nop
   8153c:	d503201f 	nop
   81540:	d503201f 	nop
   81544:	d503201f 	nop
   81548:	d503201f 	nop
   8154c:	d503201f 	nop
   81550:	d503201f 	nop
   81554:	d503201f 	nop
   81558:	d503201f 	nop
   8155c:	d503201f 	nop
   81560:	d503201f 	nop
   81564:	d503201f 	nop
   81568:	d503201f 	nop
   8156c:	d503201f 	nop
   81570:	d503201f 	nop
   81574:	d503201f 	nop
   81578:	d503201f 	nop
   8157c:	d503201f 	nop

0000000000081580 <lower_el_aarch64_serror>:
   81580:	140000ef 	b	8193c <generic_handler>
   81584:	d503201f 	nop
   81588:	d503201f 	nop
   8158c:	d503201f 	nop
   81590:	d503201f 	nop
   81594:	d503201f 	nop
   81598:	d503201f 	nop
   8159c:	d503201f 	nop
   815a0:	d503201f 	nop
   815a4:	d503201f 	nop
   815a8:	d503201f 	nop
   815ac:	d503201f 	nop
   815b0:	d503201f 	nop
   815b4:	d503201f 	nop
   815b8:	d503201f 	nop
   815bc:	d503201f 	nop
   815c0:	d503201f 	nop
   815c4:	d503201f 	nop
   815c8:	d503201f 	nop
   815cc:	d503201f 	nop
   815d0:	d503201f 	nop
   815d4:	d503201f 	nop
   815d8:	d503201f 	nop
   815dc:	d503201f 	nop
   815e0:	d503201f 	nop
   815e4:	d503201f 	nop
   815e8:	d503201f 	nop
   815ec:	d503201f 	nop
   815f0:	d503201f 	nop
   815f4:	d503201f 	nop
   815f8:	d503201f 	nop
   815fc:	d503201f 	nop

0000000000081600 <lower_el_aarch32_sync>:
   81600:	140000cf 	b	8193c <generic_handler>
   81604:	d503201f 	nop
   81608:	d503201f 	nop
   8160c:	d503201f 	nop
   81610:	d503201f 	nop
   81614:	d503201f 	nop
   81618:	d503201f 	nop
   8161c:	d503201f 	nop
   81620:	d503201f 	nop
   81624:	d503201f 	nop
   81628:	d503201f 	nop
   8162c:	d503201f 	nop
   81630:	d503201f 	nop
   81634:	d503201f 	nop
   81638:	d503201f 	nop
   8163c:	d503201f 	nop
   81640:	d503201f 	nop
   81644:	d503201f 	nop
   81648:	d503201f 	nop
   8164c:	d503201f 	nop
   81650:	d503201f 	nop
   81654:	d503201f 	nop
   81658:	d503201f 	nop
   8165c:	d503201f 	nop
   81660:	d503201f 	nop
   81664:	d503201f 	nop
   81668:	d503201f 	nop
   8166c:	d503201f 	nop
   81670:	d503201f 	nop
   81674:	d503201f 	nop
   81678:	d503201f 	nop
   8167c:	d503201f 	nop

0000000000081680 <lower_el_aarch32_irq>:
   81680:	140000af 	b	8193c <generic_handler>
   81684:	d503201f 	nop
   81688:	d503201f 	nop
   8168c:	d503201f 	nop
   81690:	d503201f 	nop
   81694:	d503201f 	nop
   81698:	d503201f 	nop
   8169c:	d503201f 	nop
   816a0:	d503201f 	nop
   816a4:	d503201f 	nop
   816a8:	d503201f 	nop
   816ac:	d503201f 	nop
   816b0:	d503201f 	nop
   816b4:	d503201f 	nop
   816b8:	d503201f 	nop
   816bc:	d503201f 	nop
   816c0:	d503201f 	nop
   816c4:	d503201f 	nop
   816c8:	d503201f 	nop
   816cc:	d503201f 	nop
   816d0:	d503201f 	nop
   816d4:	d503201f 	nop
   816d8:	d503201f 	nop
   816dc:	d503201f 	nop
   816e0:	d503201f 	nop
   816e4:	d503201f 	nop
   816e8:	d503201f 	nop
   816ec:	d503201f 	nop
   816f0:	d503201f 	nop
   816f4:	d503201f 	nop
   816f8:	d503201f 	nop
   816fc:	d503201f 	nop

0000000000081700 <lower_el_aarch32_fiq>:
   81700:	1400008f 	b	8193c <generic_handler>
   81704:	d503201f 	nop
   81708:	d503201f 	nop
   8170c:	d503201f 	nop
   81710:	d503201f 	nop
   81714:	d503201f 	nop
   81718:	d503201f 	nop
   8171c:	d503201f 	nop
   81720:	d503201f 	nop
   81724:	d503201f 	nop
   81728:	d503201f 	nop
   8172c:	d503201f 	nop
   81730:	d503201f 	nop
   81734:	d503201f 	nop
   81738:	d503201f 	nop
   8173c:	d503201f 	nop
   81740:	d503201f 	nop
   81744:	d503201f 	nop
   81748:	d503201f 	nop
   8174c:	d503201f 	nop
   81750:	d503201f 	nop
   81754:	d503201f 	nop
   81758:	d503201f 	nop
   8175c:	d503201f 	nop
   81760:	d503201f 	nop
   81764:	d503201f 	nop
   81768:	d503201f 	nop
   8176c:	d503201f 	nop
   81770:	d503201f 	nop
   81774:	d503201f 	nop
   81778:	d503201f 	nop
   8177c:	d503201f 	nop

0000000000081780 <lower_el_aarch32_serror>:
   81780:	1400006f 	b	8193c <generic_handler>

0000000000081784 <irq_handler>:
   81784:	d10483ff 	sub	sp, sp, #0x120
   81788:	a90007e0 	stp	x0, x1, [sp]
   8178c:	a9010fe2 	stp	x2, x3, [sp, #16]
   81790:	a90217e4 	stp	x4, x5, [sp, #32]
   81794:	a9031fe6 	stp	x6, x7, [sp, #48]
   81798:	a90407e8 	stp	x8, x1, [sp, #64]
   8179c:	a9052fea 	stp	x10, x11, [sp, #80]
   817a0:	a90637ec 	stp	x12, x13, [sp, #96]
   817a4:	a9073fee 	stp	x14, x15, [sp, #112]
   817a8:	a90847f0 	stp	x16, x17, [sp, #128]
   817ac:	a9094ff2 	stp	x18, x19, [sp, #144]
   817b0:	a90a57f4 	stp	x20, x21, [sp, #160]
   817b4:	a90b5ff6 	stp	x22, x23, [sp, #176]
   817b8:	a90c67f8 	stp	x24, x25, [sp, #192]
   817bc:	a90d6ffa 	stp	x26, x27, [sp, #208]
   817c0:	a90e77fc 	stp	x28, x29, [sp, #224]
   817c4:	d5384000 	mrs	x0, spsr_el1
   817c8:	92400c00 	and	x0, x0, #0xf
   817cc:	f100001f 	cmp	x0, #0x0
   817d0:	54000040 	b.eq	817d8 <irq_enter_stack_pointer_swap_skip>  // b.none
   817d4:	d5384100 	mrs	x0, sp_el0

00000000000817d8 <irq_enter_stack_pointer_swap_skip>:
   817d8:	a90f03fe 	stp	x30, x0, [sp, #240]
   817dc:	d2800020 	mov	x0, #0x1                   	// #1
   817e0:	d5385201 	mrs	x1, esr_el1
   817e4:	a91007e0 	stp	x0, x1, [sp, #256]
   817e8:	d5384020 	mrs	x0, elr_el1
   817ec:	d5384001 	mrs	x1, spsr_el1
   817f0:	a91107e0 	stp	x0, x1, [sp, #272]
   817f4:	910003e0 	mov	x0, sp
   817f8:	940006da 	bl	83360 <isr_dispatcher>
   817fc:	a95107e0 	ldp	x0, x1, [sp, #272]
   81800:	d5184020 	msr	elr_el1, x0
   81804:	d5184001 	msr	spsr_el1, x1
   81808:	a94f03fe 	ldp	x30, x0, [sp, #240]
   8180c:	92400c21 	and	x1, x1, #0xf
   81810:	f100003f 	cmp	x1, #0x0
   81814:	54000041 	b.ne	8181c <irq_exist_stack_pointer_swap_skip>  // b.any
   81818:	d5184100 	msr	sp_el0, x0

000000000008181c <irq_exist_stack_pointer_swap_skip>:
   8181c:	a94e03fe 	ldp	x30, x0, [sp, #224]
   81820:	a94d03fe 	ldp	x30, x0, [sp, #208]
   81824:	a94c03fe 	ldp	x30, x0, [sp, #192]
   81828:	a94b03fe 	ldp	x30, x0, [sp, #176]
   8182c:	a94a03fe 	ldp	x30, x0, [sp, #160]
   81830:	a94903fe 	ldp	x30, x0, [sp, #144]
   81834:	a94803fe 	ldp	x30, x0, [sp, #128]
   81838:	a94703fe 	ldp	x30, x0, [sp, #112]
   8183c:	a94603fe 	ldp	x30, x0, [sp, #96]
   81840:	a94503fe 	ldp	x30, x0, [sp, #80]
   81844:	a94403fe 	ldp	x30, x0, [sp, #64]
   81848:	a94303fe 	ldp	x30, x0, [sp, #48]
   8184c:	a94203fe 	ldp	x30, x0, [sp, #32]
   81850:	a94103fe 	ldp	x30, x0, [sp, #16]
   81854:	a94003fe 	ldp	x30, x0, [sp]
   81858:	910483ff 	add	sp, sp, #0x120
   8185c:	d69f03e0 	eret

0000000000081860 <sync_handler>:
   81860:	d10483ff 	sub	sp, sp, #0x120
   81864:	a90007e0 	stp	x0, x1, [sp]
   81868:	a9010fe2 	stp	x2, x3, [sp, #16]
   8186c:	a90217e4 	stp	x4, x5, [sp, #32]
   81870:	a9031fe6 	stp	x6, x7, [sp, #48]
   81874:	a90407e8 	stp	x8, x1, [sp, #64]
   81878:	a9052fea 	stp	x10, x11, [sp, #80]
   8187c:	a90637ec 	stp	x12, x13, [sp, #96]
   81880:	a9073fee 	stp	x14, x15, [sp, #112]
   81884:	a90847f0 	stp	x16, x17, [sp, #128]
   81888:	a9094ff2 	stp	x18, x19, [sp, #144]
   8188c:	a90a57f4 	stp	x20, x21, [sp, #160]
   81890:	a90b5ff6 	stp	x22, x23, [sp, #176]
   81894:	a90c67f8 	stp	x24, x25, [sp, #192]
   81898:	a90d6ffa 	stp	x26, x27, [sp, #208]
   8189c:	a90e77fc 	stp	x28, x29, [sp, #224]
   818a0:	d5384000 	mrs	x0, spsr_el1
   818a4:	92400c00 	and	x0, x0, #0xf
   818a8:	f100001f 	cmp	x0, #0x0
   818ac:	54000040 	b.eq	818b4 <sync_enter_stack_pointer_swap_skip>  // b.none
   818b0:	d5384100 	mrs	x0, sp_el0

00000000000818b4 <sync_enter_stack_pointer_swap_skip>:
   818b4:	a90f03fe 	stp	x30, x0, [sp, #240]
   818b8:	d2800200 	mov	x0, #0x10                  	// #16
   818bc:	d5385201 	mrs	x1, esr_el1
   818c0:	a91007e0 	stp	x0, x1, [sp, #256]
   818c4:	d5384020 	mrs	x0, elr_el1
   818c8:	d5384001 	mrs	x1, spsr_el1
   818cc:	a91107e0 	stp	x0, x1, [sp, #272]
   818d0:	910003e0 	mov	x0, sp
   818d4:	940006a3 	bl	83360 <isr_dispatcher>
   818d8:	a95107e0 	ldp	x0, x1, [sp, #272]
   818dc:	d5184020 	msr	elr_el1, x0
   818e0:	d5184001 	msr	spsr_el1, x1
   818e4:	a94f03fe 	ldp	x30, x0, [sp, #240]
   818e8:	92400c21 	and	x1, x1, #0xf
   818ec:	f100003f 	cmp	x1, #0x0
   818f0:	54000041 	b.ne	818f8 <sync_exit_stack_pointer_swap_skip>  // b.any
   818f4:	d5184100 	msr	sp_el0, x0

00000000000818f8 <sync_exit_stack_pointer_swap_skip>:
   818f8:	a94e03fe 	ldp	x30, x0, [sp, #224]
   818fc:	a94d03fe 	ldp	x30, x0, [sp, #208]
   81900:	a94c03fe 	ldp	x30, x0, [sp, #192]
   81904:	a94b03fe 	ldp	x30, x0, [sp, #176]
   81908:	a94a03fe 	ldp	x30, x0, [sp, #160]
   8190c:	a94903fe 	ldp	x30, x0, [sp, #144]
   81910:	a94803fe 	ldp	x30, x0, [sp, #128]
   81914:	a94703fe 	ldp	x30, x0, [sp, #112]
   81918:	a94603fe 	ldp	x30, x0, [sp, #96]
   8191c:	a94503fe 	ldp	x30, x0, [sp, #80]
   81920:	a94403fe 	ldp	x30, x0, [sp, #64]
   81924:	a94303fe 	ldp	x30, x0, [sp, #48]
   81928:	a94203fe 	ldp	x30, x0, [sp, #32]
   8192c:	a94103fe 	ldp	x30, x0, [sp, #16]
   81930:	a94003fe 	ldp	x30, x0, [sp]
   81934:	910483ff 	add	sp, sp, #0x120
   81938:	d69f03e0 	eret

000000000008193c <generic_handler>:
   8193c:	d2800000 	mov	x0, #0x0                   	// #0
   81940:	17ffffff 	b	8193c <generic_handler>

0000000000081944 <enable_irq>:
   81944:	d50342ff 	msr	daifclr, #0x2
   81948:	d65f03c0 	ret
   8194c:	00000000 	udf	#0
   81950:	00081000 	.inst	0x00081000 ; undefined
   81954:	00000000 	udf	#0

0000000000081958 <memcpy>:
   81958:	a9bf13e3 	stp	x3, x4, [sp, #-16]!
   8195c:	a9bf1be5 	stp	x5, x6, [sp, #-16]!
   81960:	aa0003e3 	mov	x3, x0
   81964:	aa0103e4 	mov	x4, x1
   81968:	aa0203e5 	mov	x5, x2
   8196c:	eb1f00bf 	cmp	x5, xzr
   81970:	540000c0 	b.eq	81988 <memcpy+0x30>  // b.none
   81974:	39400086 	ldrb	w6, [x4]
   81978:	39000066 	strb	w6, [x3]
   8197c:	d10004a5 	sub	x5, x5, #0x1
   81980:	eb1f00bf 	cmp	x5, xzr
   81984:	54ffff8c 	b.gt	81974 <memcpy+0x1c>
   81988:	a8c11be5 	ldp	x5, x6, [sp], #16
   8198c:	a8c113e3 	ldp	x3, x4, [sp], #16
   81990:	d65f03c0 	ret

0000000000081994 <memclr>:
   81994:	a9bf13e3 	stp	x3, x4, [sp, #-16]!
   81998:	aa0003e3 	mov	x3, x0
   8199c:	aa0103e4 	mov	x4, x1
   819a0:	3900007f 	strb	wzr, [x3]
   819a4:	d1000484 	sub	x4, x4, #0x1
   819a8:	eb1f009f 	cmp	x4, xzr
   819ac:	54ffffac 	b.gt	819a0 <memclr+0xc>
   819b0:	a8c113e3 	ldp	x3, x4, [sp], #16
   819b4:	d65f03c0 	ret

00000000000819b8 <memset>:
   819b8:	a9bf13e3 	stp	x3, x4, [sp, #-16]!
   819bc:	a9bf1be5 	stp	x5, x6, [sp, #-16]!
   819c0:	aa0003e3 	mov	x3, x0
   819c4:	aa0203e4 	mov	x4, x2
   819c8:	aa0103e5 	mov	x5, x1
   819cc:	b8004465 	str	w5, [x3], #4
   819d0:	d1001084 	sub	x4, x4, #0x4
   819d4:	eb1f009f 	cmp	x4, xzr
   819d8:	54ffffac 	b.gt	819cc <memset+0x14>
   819dc:	a8c11be5 	ldp	x5, x6, [sp], #16
   819e0:	a8c113e3 	ldp	x3, x4, [sp], #16
   819e4:	d65f03c0 	ret

00000000000819e8 <delay>:
   819e8:	f1000400 	subs	x0, x0, #0x1
   819ec:	54ffffe1 	b.ne	819e8 <delay>  // b.any
   819f0:	d65f03c0 	ret

00000000000819f4 <out_word>:
   819f4:	b9000001 	str	w1, [x0]
   819f8:	d65f03c0 	ret

00000000000819fc <in_word>:
   819fc:	b9400000 	ldr	w0, [x0]
   81a00:	d65f03c0 	ret

0000000000081a04 <__lock_acq_mem>:
   81a04:	52800022 	mov	w2, #0x1                   	// #1
   81a08:	d50320bf 	sevl

0000000000081a0c <l1>:
   81a0c:	d503205f 	wfe

0000000000081a10 <l2>:
   81a10:	885ffc01 	ldaxr	w1, [x0]
   81a14:	35ffffc1 	cbnz	w1, 81a0c <l1>
   81a18:	88017c02 	stxr	w1, w2, [x0]
   81a1c:	52800023 	mov	w3, #0x1                   	// #1
   81a20:	889ffc03 	stlr	w3, [x0]
   81a24:	35ffff61 	cbnz	w1, 81a10 <l2>
   81a28:	d65f03c0 	ret

0000000000081a2c <__lock_rel_mem>:
   81a2c:	889ffc1f 	stlr	wzr, [x0]
   81a30:	d65f03c0 	ret
   81a34:	00000000 	udf	#0

0000000000081a38 <core_one_start>:
   81a38:	d503205f 	wfe

0000000000081a3c <core_two_start>:
   81a3c:	d503205f 	wfe
   81a40:	58000380 	ldr	x0, 81ab0 <fetch_stack_3+0xc>
   81a44:	91400800 	add	x0, x0, #0x2, lsl #12
   81a48:	9100001f 	mov	sp, x0
   81a4c:	aa1f03e0 	mov	x0, xzr
   81a50:	d5181000 	msr	sctlr_el1, x0
   81a54:	140005f2 	b	8321c <func_core_entry>

0000000000081a58 <core_three_start>:
   81a58:	d503205f 	wfe
   81a5c:	580002e0 	ldr	x0, 81ab8 <fetch_stack_3+0x14>
   81a60:	91400800 	add	x0, x0, #0x2, lsl #12
   81a64:	9100001f 	mov	sp, x0
   81a68:	aa1f03e0 	mov	x0, xzr
   81a6c:	d5181000 	msr	sctlr_el1, x0
   81a70:	140005f1 	b	83234 <func_core_aux_entry>

0000000000081a74 <get_core_stack>:
   81a74:	f100041f 	cmp	x0, #0x1
   81a78:	540000e0 	b.eq	81a94 <fetch_stack_1>  // b.none
   81a7c:	f100081f 	cmp	x0, #0x2
   81a80:	540000e0 	b.eq	81a9c <fetch_stack_2>  // b.none
   81a84:	f1000c1f 	cmp	x0, #0x3
   81a88:	540000e0 	b.eq	81aa4 <fetch_stack_3>  // b.none
   81a8c:	580001a0 	ldr	x0, 81ac0 <fetch_stack_3+0x1c>
   81a90:	d65f03c0 	ret

0000000000081a94 <fetch_stack_1>:
   81a94:	580001a0 	ldr	x0, 81ac8 <fetch_stack_3+0x24>
   81a98:	d65f03c0 	ret

0000000000081a9c <fetch_stack_2>:
   81a9c:	580000a0 	ldr	x0, 81ab0 <fetch_stack_3+0xc>
   81aa0:	d65f03c0 	ret

0000000000081aa4 <fetch_stack_3>:
   81aa4:	580000a0 	ldr	x0, 81ab8 <fetch_stack_3+0x14>
   81aa8:	d65f03c0 	ret
   81aac:	00000000 	udf	#0
   81ab0:	0008a000 	.inst	0x0008a000 ; undefined
   81ab4:	00000000 	udf	#0
   81ab8:	0008c000 	.inst	0x0008c000 ; undefined
   81abc:	00000000 	udf	#0
   81ac0:	00086000 	.inst	0x00086000 ; undefined
   81ac4:	00000000 	udf	#0
   81ac8:	00088000 	.inst	0x00088000 ; undefined
	...

0000000000082000 <set_up_mmu>:
   82000:	10088000 	adr	x0, 93000 <boot_strap_table_addr_el0>
   82004:	d5182000 	msr	ttbr0_el1, x0
   82008:	1005ffc0 	adr	x0, 8e000 <boot_strap_table_addr>
   8200c:	d5182020 	msr	ttbr1_el1, x0
   82010:	58007f80 	ldr	x0, 83000 <set_up_bootstrap_page_table_el0+0xf24>
   82014:	d518a200 	msr	mair_el1, x0
   82018:	58007f80 	ldr	x0, 83008 <set_up_bootstrap_page_table_el0+0xf2c>
   8201c:	d5182040 	msr	tcr_el1, x0
   82020:	d5381000 	mrs	x0, sctlr_el1
   82024:	b2400000 	orr	x0, x0, #0x1
   82028:	d5181000 	msr	sctlr_el1, x0
   8202c:	d65f03c0 	ret

0000000000082030 <flush_tlb_el1>:
   82030:	d508831f 	tlbi	vmalle1is
   82034:	d5033b9f 	dsb	ish
   82038:	d5033fdf 	isb
   8203c:	d65f03c0 	ret

0000000000082040 <set_up_bootstrap_page_table>:
   82040:	1005fe00 	adr	x0, 8e000 <boot_strap_table_addr>
   82044:	10067de1 	adr	x1, 8f000 <boot_strap_pud>
   82048:	b2400421 	orr	x1, x1, #0x3
   8204c:	f9000001 	str	x1, [x0]
   82050:	10067d80 	adr	x0, 8f000 <boot_strap_pud>
   82054:	1006fd61 	adr	x1, 90000 <boot_strap_pmd>
   82058:	b2400421 	orr	x1, x1, #0x3
   8205c:	f9000001 	str	x1, [x0]

0000000000082060 <build_pmd>:
   82060:	d2a60002 	mov	x2, #0x30000000            	// #805306368
   82064:	aa1f03e0 	mov	x0, xzr
   82068:	1006fcc1 	adr	x1, 90000 <boot_strap_pmd>
   8206c:	d28080a0 	mov	x0, #0x405                 	// #1029

0000000000082070 <map_kernel>:
   82070:	f8008420 	str	x0, [x1], #8
   82074:	91480000 	add	x0, x0, #0x200, lsl #12
   82078:	eb02001f 	cmp	x0, x2
   8207c:	54ffffa3 	b.cc	82070 <map_kernel>  // b.lo, b.ul, b.last
   82080:	d2a80001 	mov	x1, #0x40000000            	// #1073741824
   82084:	d2a7e000 	mov	x0, #0x3f000000            	// #1056964608
   82088:	1006fbc2 	adr	x2, 90000 <boot_strap_pmd>
   8208c:	d355fc03 	lsr	x3, x0, #21
   82090:	d37df063 	lsl	x3, x3, #3
   82094:	8b030042 	add	x2, x2, x3
   82098:	b2400000 	orr	x0, x0, #0x1
   8209c:	b2760000 	orr	x0, x0, #0x400

00000000000820a0 <map_periphral>:
   820a0:	f8008440 	str	x0, [x2], #8
   820a4:	91480000 	add	x0, x0, #0x200, lsl #12
   820a8:	eb01001f 	cmp	x0, x1
   820ac:	54ffffa3 	b.cc	820a0 <map_periphral>  // b.lo, b.ul, b.last
   820b0:	10067a80 	adr	x0, 8f000 <boot_strap_pud>
   820b4:	91002000 	add	x0, x0, #0x8
   820b8:	10077a41 	adr	x1, 91000 <boot_strap_pmd_above_1G>
   820bc:	b2400421 	orr	x1, x1, #0x3
   820c0:	f9000001 	str	x1, [x0]
   820c4:	d2a80000 	mov	x0, #0x40000000            	// #1073741824
   820c8:	100779c2 	adr	x2, 91000 <boot_strap_pmd_above_1G>
   820cc:	b2400000 	orr	x0, x0, #0x1
   820d0:	b2760000 	orr	x0, x0, #0x400
   820d4:	f9000040 	str	x0, [x2]
   820d8:	d65f03c0 	ret

00000000000820dc <set_up_bootstrap_page_table_el0>:
   820dc:	10087920 	adr	x0, 93000 <boot_strap_table_addr_el0>
   820e0:	1008f901 	adr	x1, 94000 <boot_strap_pud_el0>
   820e4:	b2400421 	orr	x1, x1, #0x3
   820e8:	f9000001 	str	x1, [x0]
   820ec:	1008f8a0 	adr	x0, 94000 <boot_strap_pud_el0>
   820f0:	10097881 	adr	x1, 95000 <boot_strap_pmd_el0>
   820f4:	b2400421 	orr	x1, x1, #0x3
   820f8:	f9000001 	str	x1, [x0]
   820fc:	10097821 	adr	x1, 95000 <boot_strap_pmd_el0>
   82100:	d28080a0 	mov	x0, #0x405                 	// #1029
   82104:	f9000020 	str	x0, [x1]
   82108:	1008f7c0 	adr	x0, 94000 <boot_strap_pud_el0>
   8210c:	91002000 	add	x0, x0, #0x8
   82110:	1009f781 	adr	x1, 96000 <boot_strap_pmd_el0_above_1G>
   82114:	b2400421 	orr	x1, x1, #0x3
   82118:	f9000001 	str	x1, [x0]
   8211c:	d2a80000 	mov	x0, #0x40000000            	// #1073741824
   82120:	1009f702 	adr	x2, 96000 <boot_strap_pmd_el0_above_1G>
   82124:	b2400000 	orr	x0, x0, #0x1
   82128:	b2760000 	orr	x0, x0, #0x400
   8212c:	f9000040 	str	x0, [x2]
   82130:	d65f03c0 	ret
   82134:	d503201f 	nop
   82138:	d503201f 	nop
   8213c:	d503201f 	nop
   82140:	d503201f 	nop
   82144:	d503201f 	nop
   82148:	d503201f 	nop
   8214c:	d503201f 	nop
   82150:	d503201f 	nop
   82154:	d503201f 	nop
   82158:	d503201f 	nop
   8215c:	d503201f 	nop
   82160:	d503201f 	nop
   82164:	d503201f 	nop
   82168:	d503201f 	nop
   8216c:	d503201f 	nop
   82170:	d503201f 	nop
   82174:	d503201f 	nop
   82178:	d503201f 	nop
   8217c:	d503201f 	nop
   82180:	d503201f 	nop
   82184:	d503201f 	nop
   82188:	d503201f 	nop
   8218c:	d503201f 	nop
   82190:	d503201f 	nop
   82194:	d503201f 	nop
   82198:	d503201f 	nop
   8219c:	d503201f 	nop
   821a0:	d503201f 	nop
   821a4:	d503201f 	nop
   821a8:	d503201f 	nop
   821ac:	d503201f 	nop
   821b0:	d503201f 	nop
   821b4:	d503201f 	nop
   821b8:	d503201f 	nop
   821bc:	d503201f 	nop
   821c0:	d503201f 	nop
   821c4:	d503201f 	nop
   821c8:	d503201f 	nop
   821cc:	d503201f 	nop
   821d0:	d503201f 	nop
   821d4:	d503201f 	nop
   821d8:	d503201f 	nop
   821dc:	d503201f 	nop
   821e0:	d503201f 	nop
   821e4:	d503201f 	nop
   821e8:	d503201f 	nop
   821ec:	d503201f 	nop
   821f0:	d503201f 	nop
   821f4:	d503201f 	nop
   821f8:	d503201f 	nop
   821fc:	d503201f 	nop
   82200:	d503201f 	nop
   82204:	d503201f 	nop
   82208:	d503201f 	nop
   8220c:	d503201f 	nop
   82210:	d503201f 	nop
   82214:	d503201f 	nop
   82218:	d503201f 	nop
   8221c:	d503201f 	nop
   82220:	d503201f 	nop
   82224:	d503201f 	nop
   82228:	d503201f 	nop
   8222c:	d503201f 	nop
   82230:	d503201f 	nop
   82234:	d503201f 	nop
   82238:	d503201f 	nop
   8223c:	d503201f 	nop
   82240:	d503201f 	nop
   82244:	d503201f 	nop
   82248:	d503201f 	nop
   8224c:	d503201f 	nop
   82250:	d503201f 	nop
   82254:	d503201f 	nop
   82258:	d503201f 	nop
   8225c:	d503201f 	nop
   82260:	d503201f 	nop
   82264:	d503201f 	nop
   82268:	d503201f 	nop
   8226c:	d503201f 	nop
   82270:	d503201f 	nop
   82274:	d503201f 	nop
   82278:	d503201f 	nop
   8227c:	d503201f 	nop
   82280:	d503201f 	nop
   82284:	d503201f 	nop
   82288:	d503201f 	nop
   8228c:	d503201f 	nop
   82290:	d503201f 	nop
   82294:	d503201f 	nop
   82298:	d503201f 	nop
   8229c:	d503201f 	nop
   822a0:	d503201f 	nop
   822a4:	d503201f 	nop
   822a8:	d503201f 	nop
   822ac:	d503201f 	nop
   822b0:	d503201f 	nop
   822b4:	d503201f 	nop
   822b8:	d503201f 	nop
   822bc:	d503201f 	nop
   822c0:	d503201f 	nop
   822c4:	d503201f 	nop
   822c8:	d503201f 	nop
   822cc:	d503201f 	nop
   822d0:	d503201f 	nop
   822d4:	d503201f 	nop
   822d8:	d503201f 	nop
   822dc:	d503201f 	nop
   822e0:	d503201f 	nop
   822e4:	d503201f 	nop
   822e8:	d503201f 	nop
   822ec:	d503201f 	nop
   822f0:	d503201f 	nop
   822f4:	d503201f 	nop
   822f8:	d503201f 	nop
   822fc:	d503201f 	nop
   82300:	d503201f 	nop
   82304:	d503201f 	nop
   82308:	d503201f 	nop
   8230c:	d503201f 	nop
   82310:	d503201f 	nop
   82314:	d503201f 	nop
   82318:	d503201f 	nop
   8231c:	d503201f 	nop
   82320:	d503201f 	nop
   82324:	d503201f 	nop
   82328:	d503201f 	nop
   8232c:	d503201f 	nop
   82330:	d503201f 	nop
   82334:	d503201f 	nop
   82338:	d503201f 	nop
   8233c:	d503201f 	nop
   82340:	d503201f 	nop
   82344:	d503201f 	nop
   82348:	d503201f 	nop
   8234c:	d503201f 	nop
   82350:	d503201f 	nop
   82354:	d503201f 	nop
   82358:	d503201f 	nop
   8235c:	d503201f 	nop
   82360:	d503201f 	nop
   82364:	d503201f 	nop
   82368:	d503201f 	nop
   8236c:	d503201f 	nop
   82370:	d503201f 	nop
   82374:	d503201f 	nop
   82378:	d503201f 	nop
   8237c:	d503201f 	nop
   82380:	d503201f 	nop
   82384:	d503201f 	nop
   82388:	d503201f 	nop
   8238c:	d503201f 	nop
   82390:	d503201f 	nop
   82394:	d503201f 	nop
   82398:	d503201f 	nop
   8239c:	d503201f 	nop
   823a0:	d503201f 	nop
   823a4:	d503201f 	nop
   823a8:	d503201f 	nop
   823ac:	d503201f 	nop
   823b0:	d503201f 	nop
   823b4:	d503201f 	nop
   823b8:	d503201f 	nop
   823bc:	d503201f 	nop
   823c0:	d503201f 	nop
   823c4:	d503201f 	nop
   823c8:	d503201f 	nop
   823cc:	d503201f 	nop
   823d0:	d503201f 	nop
   823d4:	d503201f 	nop
   823d8:	d503201f 	nop
   823dc:	d503201f 	nop
   823e0:	d503201f 	nop
   823e4:	d503201f 	nop
   823e8:	d503201f 	nop
   823ec:	d503201f 	nop
   823f0:	d503201f 	nop
   823f4:	d503201f 	nop
   823f8:	d503201f 	nop
   823fc:	d503201f 	nop
   82400:	d503201f 	nop
   82404:	d503201f 	nop
   82408:	d503201f 	nop
   8240c:	d503201f 	nop
   82410:	d503201f 	nop
   82414:	d503201f 	nop
   82418:	d503201f 	nop
   8241c:	d503201f 	nop
   82420:	d503201f 	nop
   82424:	d503201f 	nop
   82428:	d503201f 	nop
   8242c:	d503201f 	nop
   82430:	d503201f 	nop
   82434:	d503201f 	nop
   82438:	d503201f 	nop
   8243c:	d503201f 	nop
   82440:	d503201f 	nop
   82444:	d503201f 	nop
   82448:	d503201f 	nop
   8244c:	d503201f 	nop
   82450:	d503201f 	nop
   82454:	d503201f 	nop
   82458:	d503201f 	nop
   8245c:	d503201f 	nop
   82460:	d503201f 	nop
   82464:	d503201f 	nop
   82468:	d503201f 	nop
   8246c:	d503201f 	nop
   82470:	d503201f 	nop
   82474:	d503201f 	nop
   82478:	d503201f 	nop
   8247c:	d503201f 	nop
   82480:	d503201f 	nop
   82484:	d503201f 	nop
   82488:	d503201f 	nop
   8248c:	d503201f 	nop
   82490:	d503201f 	nop
   82494:	d503201f 	nop
   82498:	d503201f 	nop
   8249c:	d503201f 	nop
   824a0:	d503201f 	nop
   824a4:	d503201f 	nop
   824a8:	d503201f 	nop
   824ac:	d503201f 	nop
   824b0:	d503201f 	nop
   824b4:	d503201f 	nop
   824b8:	d503201f 	nop
   824bc:	d503201f 	nop
   824c0:	d503201f 	nop
   824c4:	d503201f 	nop
   824c8:	d503201f 	nop
   824cc:	d503201f 	nop
   824d0:	d503201f 	nop
   824d4:	d503201f 	nop
   824d8:	d503201f 	nop
   824dc:	d503201f 	nop
   824e0:	d503201f 	nop
   824e4:	d503201f 	nop
   824e8:	d503201f 	nop
   824ec:	d503201f 	nop
   824f0:	d503201f 	nop
   824f4:	d503201f 	nop
   824f8:	d503201f 	nop
   824fc:	d503201f 	nop
   82500:	d503201f 	nop
   82504:	d503201f 	nop
   82508:	d503201f 	nop
   8250c:	d503201f 	nop
   82510:	d503201f 	nop
   82514:	d503201f 	nop
   82518:	d503201f 	nop
   8251c:	d503201f 	nop
   82520:	d503201f 	nop
   82524:	d503201f 	nop
   82528:	d503201f 	nop
   8252c:	d503201f 	nop
   82530:	d503201f 	nop
   82534:	d503201f 	nop
   82538:	d503201f 	nop
   8253c:	d503201f 	nop
   82540:	d503201f 	nop
   82544:	d503201f 	nop
   82548:	d503201f 	nop
   8254c:	d503201f 	nop
   82550:	d503201f 	nop
   82554:	d503201f 	nop
   82558:	d503201f 	nop
   8255c:	d503201f 	nop
   82560:	d503201f 	nop
   82564:	d503201f 	nop
   82568:	d503201f 	nop
   8256c:	d503201f 	nop
   82570:	d503201f 	nop
   82574:	d503201f 	nop
   82578:	d503201f 	nop
   8257c:	d503201f 	nop
   82580:	d503201f 	nop
   82584:	d503201f 	nop
   82588:	d503201f 	nop
   8258c:	d503201f 	nop
   82590:	d503201f 	nop
   82594:	d503201f 	nop
   82598:	d503201f 	nop
   8259c:	d503201f 	nop
   825a0:	d503201f 	nop
   825a4:	d503201f 	nop
   825a8:	d503201f 	nop
   825ac:	d503201f 	nop
   825b0:	d503201f 	nop
   825b4:	d503201f 	nop
   825b8:	d503201f 	nop
   825bc:	d503201f 	nop
   825c0:	d503201f 	nop
   825c4:	d503201f 	nop
   825c8:	d503201f 	nop
   825cc:	d503201f 	nop
   825d0:	d503201f 	nop
   825d4:	d503201f 	nop
   825d8:	d503201f 	nop
   825dc:	d503201f 	nop
   825e0:	d503201f 	nop
   825e4:	d503201f 	nop
   825e8:	d503201f 	nop
   825ec:	d503201f 	nop
   825f0:	d503201f 	nop
   825f4:	d503201f 	nop
   825f8:	d503201f 	nop
   825fc:	d503201f 	nop
   82600:	d503201f 	nop
   82604:	d503201f 	nop
   82608:	d503201f 	nop
   8260c:	d503201f 	nop
   82610:	d503201f 	nop
   82614:	d503201f 	nop
   82618:	d503201f 	nop
   8261c:	d503201f 	nop
   82620:	d503201f 	nop
   82624:	d503201f 	nop
   82628:	d503201f 	nop
   8262c:	d503201f 	nop
   82630:	d503201f 	nop
   82634:	d503201f 	nop
   82638:	d503201f 	nop
   8263c:	d503201f 	nop
   82640:	d503201f 	nop
   82644:	d503201f 	nop
   82648:	d503201f 	nop
   8264c:	d503201f 	nop
   82650:	d503201f 	nop
   82654:	d503201f 	nop
   82658:	d503201f 	nop
   8265c:	d503201f 	nop
   82660:	d503201f 	nop
   82664:	d503201f 	nop
   82668:	d503201f 	nop
   8266c:	d503201f 	nop
   82670:	d503201f 	nop
   82674:	d503201f 	nop
   82678:	d503201f 	nop
   8267c:	d503201f 	nop
   82680:	d503201f 	nop
   82684:	d503201f 	nop
   82688:	d503201f 	nop
   8268c:	d503201f 	nop
   82690:	d503201f 	nop
   82694:	d503201f 	nop
   82698:	d503201f 	nop
   8269c:	d503201f 	nop
   826a0:	d503201f 	nop
   826a4:	d503201f 	nop
   826a8:	d503201f 	nop
   826ac:	d503201f 	nop
   826b0:	d503201f 	nop
   826b4:	d503201f 	nop
   826b8:	d503201f 	nop
   826bc:	d503201f 	nop
   826c0:	d503201f 	nop
   826c4:	d503201f 	nop
   826c8:	d503201f 	nop
   826cc:	d503201f 	nop
   826d0:	d503201f 	nop
   826d4:	d503201f 	nop
   826d8:	d503201f 	nop
   826dc:	d503201f 	nop
   826e0:	d503201f 	nop
   826e4:	d503201f 	nop
   826e8:	d503201f 	nop
   826ec:	d503201f 	nop
   826f0:	d503201f 	nop
   826f4:	d503201f 	nop
   826f8:	d503201f 	nop
   826fc:	d503201f 	nop
   82700:	d503201f 	nop
   82704:	d503201f 	nop
   82708:	d503201f 	nop
   8270c:	d503201f 	nop
   82710:	d503201f 	nop
   82714:	d503201f 	nop
   82718:	d503201f 	nop
   8271c:	d503201f 	nop
   82720:	d503201f 	nop
   82724:	d503201f 	nop
   82728:	d503201f 	nop
   8272c:	d503201f 	nop
   82730:	d503201f 	nop
   82734:	d503201f 	nop
   82738:	d503201f 	nop
   8273c:	d503201f 	nop
   82740:	d503201f 	nop
   82744:	d503201f 	nop
   82748:	d503201f 	nop
   8274c:	d503201f 	nop
   82750:	d503201f 	nop
   82754:	d503201f 	nop
   82758:	d503201f 	nop
   8275c:	d503201f 	nop
   82760:	d503201f 	nop
   82764:	d503201f 	nop
   82768:	d503201f 	nop
   8276c:	d503201f 	nop
   82770:	d503201f 	nop
   82774:	d503201f 	nop
   82778:	d503201f 	nop
   8277c:	d503201f 	nop
   82780:	d503201f 	nop
   82784:	d503201f 	nop
   82788:	d503201f 	nop
   8278c:	d503201f 	nop
   82790:	d503201f 	nop
   82794:	d503201f 	nop
   82798:	d503201f 	nop
   8279c:	d503201f 	nop
   827a0:	d503201f 	nop
   827a4:	d503201f 	nop
   827a8:	d503201f 	nop
   827ac:	d503201f 	nop
   827b0:	d503201f 	nop
   827b4:	d503201f 	nop
   827b8:	d503201f 	nop
   827bc:	d503201f 	nop
   827c0:	d503201f 	nop
   827c4:	d503201f 	nop
   827c8:	d503201f 	nop
   827cc:	d503201f 	nop
   827d0:	d503201f 	nop
   827d4:	d503201f 	nop
   827d8:	d503201f 	nop
   827dc:	d503201f 	nop
   827e0:	d503201f 	nop
   827e4:	d503201f 	nop
   827e8:	d503201f 	nop
   827ec:	d503201f 	nop
   827f0:	d503201f 	nop
   827f4:	d503201f 	nop
   827f8:	d503201f 	nop
   827fc:	d503201f 	nop
   82800:	d503201f 	nop
   82804:	d503201f 	nop
   82808:	d503201f 	nop
   8280c:	d503201f 	nop
   82810:	d503201f 	nop
   82814:	d503201f 	nop
   82818:	d503201f 	nop
   8281c:	d503201f 	nop
   82820:	d503201f 	nop
   82824:	d503201f 	nop
   82828:	d503201f 	nop
   8282c:	d503201f 	nop
   82830:	d503201f 	nop
   82834:	d503201f 	nop
   82838:	d503201f 	nop
   8283c:	d503201f 	nop
   82840:	d503201f 	nop
   82844:	d503201f 	nop
   82848:	d503201f 	nop
   8284c:	d503201f 	nop
   82850:	d503201f 	nop
   82854:	d503201f 	nop
   82858:	d503201f 	nop
   8285c:	d503201f 	nop
   82860:	d503201f 	nop
   82864:	d503201f 	nop
   82868:	d503201f 	nop
   8286c:	d503201f 	nop
   82870:	d503201f 	nop
   82874:	d503201f 	nop
   82878:	d503201f 	nop
   8287c:	d503201f 	nop
   82880:	d503201f 	nop
   82884:	d503201f 	nop
   82888:	d503201f 	nop
   8288c:	d503201f 	nop
   82890:	d503201f 	nop
   82894:	d503201f 	nop
   82898:	d503201f 	nop
   8289c:	d503201f 	nop
   828a0:	d503201f 	nop
   828a4:	d503201f 	nop
   828a8:	d503201f 	nop
   828ac:	d503201f 	nop
   828b0:	d503201f 	nop
   828b4:	d503201f 	nop
   828b8:	d503201f 	nop
   828bc:	d503201f 	nop
   828c0:	d503201f 	nop
   828c4:	d503201f 	nop
   828c8:	d503201f 	nop
   828cc:	d503201f 	nop
   828d0:	d503201f 	nop
   828d4:	d503201f 	nop
   828d8:	d503201f 	nop
   828dc:	d503201f 	nop
   828e0:	d503201f 	nop
   828e4:	d503201f 	nop
   828e8:	d503201f 	nop
   828ec:	d503201f 	nop
   828f0:	d503201f 	nop
   828f4:	d503201f 	nop
   828f8:	d503201f 	nop
   828fc:	d503201f 	nop
   82900:	d503201f 	nop
   82904:	d503201f 	nop
   82908:	d503201f 	nop
   8290c:	d503201f 	nop
   82910:	d503201f 	nop
   82914:	d503201f 	nop
   82918:	d503201f 	nop
   8291c:	d503201f 	nop
   82920:	d503201f 	nop
   82924:	d503201f 	nop
   82928:	d503201f 	nop
   8292c:	d503201f 	nop
   82930:	d503201f 	nop
   82934:	d503201f 	nop
   82938:	d503201f 	nop
   8293c:	d503201f 	nop
   82940:	d503201f 	nop
   82944:	d503201f 	nop
   82948:	d503201f 	nop
   8294c:	d503201f 	nop
   82950:	d503201f 	nop
   82954:	d503201f 	nop
   82958:	d503201f 	nop
   8295c:	d503201f 	nop
   82960:	d503201f 	nop
   82964:	d503201f 	nop
   82968:	d503201f 	nop
   8296c:	d503201f 	nop
   82970:	d503201f 	nop
   82974:	d503201f 	nop
   82978:	d503201f 	nop
   8297c:	d503201f 	nop
   82980:	d503201f 	nop
   82984:	d503201f 	nop
   82988:	d503201f 	nop
   8298c:	d503201f 	nop
   82990:	d503201f 	nop
   82994:	d503201f 	nop
   82998:	d503201f 	nop
   8299c:	d503201f 	nop
   829a0:	d503201f 	nop
   829a4:	d503201f 	nop
   829a8:	d503201f 	nop
   829ac:	d503201f 	nop
   829b0:	d503201f 	nop
   829b4:	d503201f 	nop
   829b8:	d503201f 	nop
   829bc:	d503201f 	nop
   829c0:	d503201f 	nop
   829c4:	d503201f 	nop
   829c8:	d503201f 	nop
   829cc:	d503201f 	nop
   829d0:	d503201f 	nop
   829d4:	d503201f 	nop
   829d8:	d503201f 	nop
   829dc:	d503201f 	nop
   829e0:	d503201f 	nop
   829e4:	d503201f 	nop
   829e8:	d503201f 	nop
   829ec:	d503201f 	nop
   829f0:	d503201f 	nop
   829f4:	d503201f 	nop
   829f8:	d503201f 	nop
   829fc:	d503201f 	nop
   82a00:	d503201f 	nop
   82a04:	d503201f 	nop
   82a08:	d503201f 	nop
   82a0c:	d503201f 	nop
   82a10:	d503201f 	nop
   82a14:	d503201f 	nop
   82a18:	d503201f 	nop
   82a1c:	d503201f 	nop
   82a20:	d503201f 	nop
   82a24:	d503201f 	nop
   82a28:	d503201f 	nop
   82a2c:	d503201f 	nop
   82a30:	d503201f 	nop
   82a34:	d503201f 	nop
   82a38:	d503201f 	nop
   82a3c:	d503201f 	nop
   82a40:	d503201f 	nop
   82a44:	d503201f 	nop
   82a48:	d503201f 	nop
   82a4c:	d503201f 	nop
   82a50:	d503201f 	nop
   82a54:	d503201f 	nop
   82a58:	d503201f 	nop
   82a5c:	d503201f 	nop
   82a60:	d503201f 	nop
   82a64:	d503201f 	nop
   82a68:	d503201f 	nop
   82a6c:	d503201f 	nop
   82a70:	d503201f 	nop
   82a74:	d503201f 	nop
   82a78:	d503201f 	nop
   82a7c:	d503201f 	nop
   82a80:	d503201f 	nop
   82a84:	d503201f 	nop
   82a88:	d503201f 	nop
   82a8c:	d503201f 	nop
   82a90:	d503201f 	nop
   82a94:	d503201f 	nop
   82a98:	d503201f 	nop
   82a9c:	d503201f 	nop
   82aa0:	d503201f 	nop
   82aa4:	d503201f 	nop
   82aa8:	d503201f 	nop
   82aac:	d503201f 	nop
   82ab0:	d503201f 	nop
   82ab4:	d503201f 	nop
   82ab8:	d503201f 	nop
   82abc:	d503201f 	nop
   82ac0:	d503201f 	nop
   82ac4:	d503201f 	nop
   82ac8:	d503201f 	nop
   82acc:	d503201f 	nop
   82ad0:	d503201f 	nop
   82ad4:	d503201f 	nop
   82ad8:	d503201f 	nop
   82adc:	d503201f 	nop
   82ae0:	d503201f 	nop
   82ae4:	d503201f 	nop
   82ae8:	d503201f 	nop
   82aec:	d503201f 	nop
   82af0:	d503201f 	nop
   82af4:	d503201f 	nop
   82af8:	d503201f 	nop
   82afc:	d503201f 	nop
   82b00:	d503201f 	nop
   82b04:	d503201f 	nop
   82b08:	d503201f 	nop
   82b0c:	d503201f 	nop
   82b10:	d503201f 	nop
   82b14:	d503201f 	nop
   82b18:	d503201f 	nop
   82b1c:	d503201f 	nop
   82b20:	d503201f 	nop
   82b24:	d503201f 	nop
   82b28:	d503201f 	nop
   82b2c:	d503201f 	nop
   82b30:	d503201f 	nop
   82b34:	d503201f 	nop
   82b38:	d503201f 	nop
   82b3c:	d503201f 	nop
   82b40:	d503201f 	nop
   82b44:	d503201f 	nop
   82b48:	d503201f 	nop
   82b4c:	d503201f 	nop
   82b50:	d503201f 	nop
   82b54:	d503201f 	nop
   82b58:	d503201f 	nop
   82b5c:	d503201f 	nop
   82b60:	d503201f 	nop
   82b64:	d503201f 	nop
   82b68:	d503201f 	nop
   82b6c:	d503201f 	nop
   82b70:	d503201f 	nop
   82b74:	d503201f 	nop
   82b78:	d503201f 	nop
   82b7c:	d503201f 	nop
   82b80:	d503201f 	nop
   82b84:	d503201f 	nop
   82b88:	d503201f 	nop
   82b8c:	d503201f 	nop
   82b90:	d503201f 	nop
   82b94:	d503201f 	nop
   82b98:	d503201f 	nop
   82b9c:	d503201f 	nop
   82ba0:	d503201f 	nop
   82ba4:	d503201f 	nop
   82ba8:	d503201f 	nop
   82bac:	d503201f 	nop
   82bb0:	d503201f 	nop
   82bb4:	d503201f 	nop
   82bb8:	d503201f 	nop
   82bbc:	d503201f 	nop
   82bc0:	d503201f 	nop
   82bc4:	d503201f 	nop
   82bc8:	d503201f 	nop
   82bcc:	d503201f 	nop
   82bd0:	d503201f 	nop
   82bd4:	d503201f 	nop
   82bd8:	d503201f 	nop
   82bdc:	d503201f 	nop
   82be0:	d503201f 	nop
   82be4:	d503201f 	nop
   82be8:	d503201f 	nop
   82bec:	d503201f 	nop
   82bf0:	d503201f 	nop
   82bf4:	d503201f 	nop
   82bf8:	d503201f 	nop
   82bfc:	d503201f 	nop
   82c00:	d503201f 	nop
   82c04:	d503201f 	nop
   82c08:	d503201f 	nop
   82c0c:	d503201f 	nop
   82c10:	d503201f 	nop
   82c14:	d503201f 	nop
   82c18:	d503201f 	nop
   82c1c:	d503201f 	nop
   82c20:	d503201f 	nop
   82c24:	d503201f 	nop
   82c28:	d503201f 	nop
   82c2c:	d503201f 	nop
   82c30:	d503201f 	nop
   82c34:	d503201f 	nop
   82c38:	d503201f 	nop
   82c3c:	d503201f 	nop
   82c40:	d503201f 	nop
   82c44:	d503201f 	nop
   82c48:	d503201f 	nop
   82c4c:	d503201f 	nop
   82c50:	d503201f 	nop
   82c54:	d503201f 	nop
   82c58:	d503201f 	nop
   82c5c:	d503201f 	nop
   82c60:	d503201f 	nop
   82c64:	d503201f 	nop
   82c68:	d503201f 	nop
   82c6c:	d503201f 	nop
   82c70:	d503201f 	nop
   82c74:	d503201f 	nop
   82c78:	d503201f 	nop
   82c7c:	d503201f 	nop
   82c80:	d503201f 	nop
   82c84:	d503201f 	nop
   82c88:	d503201f 	nop
   82c8c:	d503201f 	nop
   82c90:	d503201f 	nop
   82c94:	d503201f 	nop
   82c98:	d503201f 	nop
   82c9c:	d503201f 	nop
   82ca0:	d503201f 	nop
   82ca4:	d503201f 	nop
   82ca8:	d503201f 	nop
   82cac:	d503201f 	nop
   82cb0:	d503201f 	nop
   82cb4:	d503201f 	nop
   82cb8:	d503201f 	nop
   82cbc:	d503201f 	nop
   82cc0:	d503201f 	nop
   82cc4:	d503201f 	nop
   82cc8:	d503201f 	nop
   82ccc:	d503201f 	nop
   82cd0:	d503201f 	nop
   82cd4:	d503201f 	nop
   82cd8:	d503201f 	nop
   82cdc:	d503201f 	nop
   82ce0:	d503201f 	nop
   82ce4:	d503201f 	nop
   82ce8:	d503201f 	nop
   82cec:	d503201f 	nop
   82cf0:	d503201f 	nop
   82cf4:	d503201f 	nop
   82cf8:	d503201f 	nop
   82cfc:	d503201f 	nop
   82d00:	d503201f 	nop
   82d04:	d503201f 	nop
   82d08:	d503201f 	nop
   82d0c:	d503201f 	nop
   82d10:	d503201f 	nop
   82d14:	d503201f 	nop
   82d18:	d503201f 	nop
   82d1c:	d503201f 	nop
   82d20:	d503201f 	nop
   82d24:	d503201f 	nop
   82d28:	d503201f 	nop
   82d2c:	d503201f 	nop
   82d30:	d503201f 	nop
   82d34:	d503201f 	nop
   82d38:	d503201f 	nop
   82d3c:	d503201f 	nop
   82d40:	d503201f 	nop
   82d44:	d503201f 	nop
   82d48:	d503201f 	nop
   82d4c:	d503201f 	nop
   82d50:	d503201f 	nop
   82d54:	d503201f 	nop
   82d58:	d503201f 	nop
   82d5c:	d503201f 	nop
   82d60:	d503201f 	nop
   82d64:	d503201f 	nop
   82d68:	d503201f 	nop
   82d6c:	d503201f 	nop
   82d70:	d503201f 	nop
   82d74:	d503201f 	nop
   82d78:	d503201f 	nop
   82d7c:	d503201f 	nop
   82d80:	d503201f 	nop
   82d84:	d503201f 	nop
   82d88:	d503201f 	nop
   82d8c:	d503201f 	nop
   82d90:	d503201f 	nop
   82d94:	d503201f 	nop
   82d98:	d503201f 	nop
   82d9c:	d503201f 	nop
   82da0:	d503201f 	nop
   82da4:	d503201f 	nop
   82da8:	d503201f 	nop
   82dac:	d503201f 	nop
   82db0:	d503201f 	nop
   82db4:	d503201f 	nop
   82db8:	d503201f 	nop
   82dbc:	d503201f 	nop
   82dc0:	d503201f 	nop
   82dc4:	d503201f 	nop
   82dc8:	d503201f 	nop
   82dcc:	d503201f 	nop
   82dd0:	d503201f 	nop
   82dd4:	d503201f 	nop
   82dd8:	d503201f 	nop
   82ddc:	d503201f 	nop
   82de0:	d503201f 	nop
   82de4:	d503201f 	nop
   82de8:	d503201f 	nop
   82dec:	d503201f 	nop
   82df0:	d503201f 	nop
   82df4:	d503201f 	nop
   82df8:	d503201f 	nop
   82dfc:	d503201f 	nop
   82e00:	d503201f 	nop
   82e04:	d503201f 	nop
   82e08:	d503201f 	nop
   82e0c:	d503201f 	nop
   82e10:	d503201f 	nop
   82e14:	d503201f 	nop
   82e18:	d503201f 	nop
   82e1c:	d503201f 	nop
   82e20:	d503201f 	nop
   82e24:	d503201f 	nop
   82e28:	d503201f 	nop
   82e2c:	d503201f 	nop
   82e30:	d503201f 	nop
   82e34:	d503201f 	nop
   82e38:	d503201f 	nop
   82e3c:	d503201f 	nop
   82e40:	d503201f 	nop
   82e44:	d503201f 	nop
   82e48:	d503201f 	nop
   82e4c:	d503201f 	nop
   82e50:	d503201f 	nop
   82e54:	d503201f 	nop
   82e58:	d503201f 	nop
   82e5c:	d503201f 	nop
   82e60:	d503201f 	nop
   82e64:	d503201f 	nop
   82e68:	d503201f 	nop
   82e6c:	d503201f 	nop
   82e70:	d503201f 	nop
   82e74:	d503201f 	nop
   82e78:	d503201f 	nop
   82e7c:	d503201f 	nop
   82e80:	d503201f 	nop
   82e84:	d503201f 	nop
   82e88:	d503201f 	nop
   82e8c:	d503201f 	nop
   82e90:	d503201f 	nop
   82e94:	d503201f 	nop
   82e98:	d503201f 	nop
   82e9c:	d503201f 	nop
   82ea0:	d503201f 	nop
   82ea4:	d503201f 	nop
   82ea8:	d503201f 	nop
   82eac:	d503201f 	nop
   82eb0:	d503201f 	nop
   82eb4:	d503201f 	nop
   82eb8:	d503201f 	nop
   82ebc:	d503201f 	nop
   82ec0:	d503201f 	nop
   82ec4:	d503201f 	nop
   82ec8:	d503201f 	nop
   82ecc:	d503201f 	nop
   82ed0:	d503201f 	nop
   82ed4:	d503201f 	nop
   82ed8:	d503201f 	nop
   82edc:	d503201f 	nop
   82ee0:	d503201f 	nop
   82ee4:	d503201f 	nop
   82ee8:	d503201f 	nop
   82eec:	d503201f 	nop
   82ef0:	d503201f 	nop
   82ef4:	d503201f 	nop
   82ef8:	d503201f 	nop
   82efc:	d503201f 	nop
   82f00:	d503201f 	nop
   82f04:	d503201f 	nop
   82f08:	d503201f 	nop
   82f0c:	d503201f 	nop
   82f10:	d503201f 	nop
   82f14:	d503201f 	nop
   82f18:	d503201f 	nop
   82f1c:	d503201f 	nop
   82f20:	d503201f 	nop
   82f24:	d503201f 	nop
   82f28:	d503201f 	nop
   82f2c:	d503201f 	nop
   82f30:	d503201f 	nop
   82f34:	d503201f 	nop
   82f38:	d503201f 	nop
   82f3c:	d503201f 	nop
   82f40:	d503201f 	nop
   82f44:	d503201f 	nop
   82f48:	d503201f 	nop
   82f4c:	d503201f 	nop
   82f50:	d503201f 	nop
   82f54:	d503201f 	nop
   82f58:	d503201f 	nop
   82f5c:	d503201f 	nop
   82f60:	d503201f 	nop
   82f64:	d503201f 	nop
   82f68:	d503201f 	nop
   82f6c:	d503201f 	nop
   82f70:	d503201f 	nop
   82f74:	d503201f 	nop
   82f78:	d503201f 	nop
   82f7c:	d503201f 	nop
   82f80:	d503201f 	nop
   82f84:	d503201f 	nop
   82f88:	d503201f 	nop
   82f8c:	d503201f 	nop
   82f90:	d503201f 	nop
   82f94:	d503201f 	nop
   82f98:	d503201f 	nop
   82f9c:	d503201f 	nop
   82fa0:	d503201f 	nop
   82fa4:	d503201f 	nop
   82fa8:	d503201f 	nop
   82fac:	d503201f 	nop
   82fb0:	d503201f 	nop
   82fb4:	d503201f 	nop
   82fb8:	d503201f 	nop
   82fbc:	d503201f 	nop
   82fc0:	d503201f 	nop
   82fc4:	d503201f 	nop
   82fc8:	d503201f 	nop
   82fcc:	d503201f 	nop
   82fd0:	d503201f 	nop
   82fd4:	d503201f 	nop
   82fd8:	d503201f 	nop
   82fdc:	d503201f 	nop
   82fe0:	d503201f 	nop
   82fe4:	d503201f 	nop
   82fe8:	d503201f 	nop
   82fec:	d503201f 	nop
   82ff0:	d503201f 	nop
   82ff4:	d503201f 	nop
   82ff8:	d503201f 	nop
   82ffc:	d503201f 	nop
   83000:	00004400 	udf	#17408
   83004:	00000000 	udf	#0
   83008:	00100010 	.inst	0x00100010 ; undefined
   8300c:	00000000 	udf	#0

0000000000083010 <enable_irq_timer>:
   83010:	a9bf7bfd 	stp	x29, x30, [sp, #-16]!
   83014:	94000008 	bl	83034 <get_system_clk>
   83018:	d2800c81 	mov	x1, #0x64                  	// #100
   8301c:	9ac10800 	udiv	x0, x0, x1
   83020:	94000007 	bl	8303c <set_timer_interval>
   83024:	d2800020 	mov	x0, #0x1                   	// #1
   83028:	d51be220 	msr	cntp_ctl_el0, x0
   8302c:	a8c17bfd 	ldp	x29, x30, [sp], #16
   83030:	d65f03c0 	ret

0000000000083034 <get_system_clk>:
   83034:	d53be000 	mrs	x0, cntfrq_el0
   83038:	d65f03c0 	ret

000000000008303c <set_timer_interval>:
   8303c:	d51be200 	msr	cntp_tval_el0, x0
   83040:	d65f03c0 	ret

0000000000083044 <__assert>:
   83044:	a9bd7bfd 	stp	x29, x30, [sp, #-48]!
   83048:	910003fd 	mov	x29, sp
   8304c:	f90017e0 	str	x0, [sp, #40]
   83050:	f90013e1 	str	x1, [sp, #32]
   83054:	f9000fe2 	str	x2, [sp, #24]
   83058:	b90017e3 	str	w3, [sp, #20]
   8305c:	b94017e4 	ldr	w4, [sp, #20]
   83060:	f9400fe3 	ldr	x3, [sp, #24]
   83064:	f94013e2 	ldr	x2, [sp, #32]
   83068:	f94017e1 	ldr	x1, [sp, #40]
   8306c:	b0000000 	adrp	x0, 84000 <i2c_recv+0xa0>
   83070:	911b0000 	add	x0, x0, #0x6c0
   83074:	940001c7 	bl	83790 <printk>
   83078:	d503201f 	nop
   8307c:	a8c37bfd 	ldp	x29, x30, [sp], #48
   83080:	d65f03c0 	ret

0000000000083084 <display_page_table>:
   83084:	a9ba7bfd 	stp	x29, x30, [sp, #-96]!
   83088:	910003fd 	mov	x29, sp
   8308c:	900000a0 	adrp	x0, 97000 <core_count>
   83090:	f9400c00 	ldr	x0, [x0, #24]
   83094:	f9002fe0 	str	x0, [sp, #88]
   83098:	14000028 	b	83138 <display_page_table+0xb4>
   8309c:	f9402fe1 	ldr	x1, [sp, #88]
   830a0:	b0000000 	adrp	x0, 84000 <i2c_recv+0xa0>
   830a4:	911c4000 	add	x0, x0, #0x710
   830a8:	940001ba 	bl	83790 <printk>
   830ac:	f9402fe0 	ldr	x0, [sp, #88]
   830b0:	f9400000 	ldr	x0, [x0]
   830b4:	f90017e0 	str	x0, [sp, #40]
   830b8:	f94017e0 	ldr	x0, [sp, #40]
   830bc:	927df000 	and	x0, x0, #0xfffffffffffffff8
   830c0:	f90017e0 	str	x0, [sp, #40]
   830c4:	f94017e0 	ldr	x0, [sp, #40]
   830c8:	f9002be0 	str	x0, [sp, #80]
   830cc:	14000013 	b	83118 <display_page_table+0x94>
   830d0:	f9402be0 	ldr	x0, [sp, #80]
   830d4:	f9400000 	ldr	x0, [x0]
   830d8:	aa0003e2 	mov	x2, x0
   830dc:	f9402be1 	ldr	x1, [sp, #80]
   830e0:	b0000000 	adrp	x0, 84000 <i2c_recv+0xa0>
   830e4:	911c6000 	add	x0, x0, #0x718
   830e8:	940001aa 	bl	83790 <printk>
   830ec:	f9402be0 	ldr	x0, [sp, #80]
   830f0:	f9400000 	ldr	x0, [x0]
   830f4:	f90013e0 	str	x0, [sp, #32]
   830f8:	f94013e0 	ldr	x0, [sp, #32]
   830fc:	927df000 	and	x0, x0, #0xfffffffffffffff8
   83100:	f90013e0 	str	x0, [sp, #32]
   83104:	f94013e0 	ldr	x0, [sp, #32]
   83108:	f9000fe0 	str	x0, [sp, #24]
   8310c:	f9402be0 	ldr	x0, [sp, #80]
   83110:	91002000 	add	x0, x0, #0x8
   83114:	f9002be0 	str	x0, [sp, #80]
   83118:	f9402be0 	ldr	x0, [sp, #80]
   8311c:	f9400000 	ldr	x0, [x0]
   83120:	92400000 	and	x0, x0, #0x1
   83124:	f100001f 	cmp	x0, #0x0
   83128:	54fffd41 	b.ne	830d0 <display_page_table+0x4c>  // b.any
   8312c:	f9402fe0 	ldr	x0, [sp, #88]
   83130:	91002000 	add	x0, x0, #0x8
   83134:	f9002fe0 	str	x0, [sp, #88]
   83138:	f9402fe0 	ldr	x0, [sp, #88]
   8313c:	f9400000 	ldr	x0, [x0]
   83140:	92400000 	and	x0, x0, #0x1
   83144:	f100001f 	cmp	x0, #0x0
   83148:	54fffaa1 	b.ne	8309c <display_page_table+0x18>  // b.any
   8314c:	900000a0 	adrp	x0, 97000 <core_count>
   83150:	f9402400 	ldr	x0, [x0, #72]
   83154:	f9002fe0 	str	x0, [sp, #88]
   83158:	14000028 	b	831f8 <display_page_table+0x174>
   8315c:	f9402fe1 	ldr	x1, [sp, #88]
   83160:	b0000000 	adrp	x0, 84000 <i2c_recv+0xa0>
   83164:	911c4000 	add	x0, x0, #0x710
   83168:	9400018a 	bl	83790 <printk>
   8316c:	f9402fe0 	ldr	x0, [sp, #88]
   83170:	f9400000 	ldr	x0, [x0]
   83174:	f90023e0 	str	x0, [sp, #64]
   83178:	f94023e0 	ldr	x0, [sp, #64]
   8317c:	927df000 	and	x0, x0, #0xfffffffffffffff8
   83180:	f90023e0 	str	x0, [sp, #64]
   83184:	f94023e0 	ldr	x0, [sp, #64]
   83188:	f90027e0 	str	x0, [sp, #72]
   8318c:	14000013 	b	831d8 <display_page_table+0x154>
   83190:	f94027e0 	ldr	x0, [sp, #72]
   83194:	f9400000 	ldr	x0, [x0]
   83198:	aa0003e2 	mov	x2, x0
   8319c:	f94027e1 	ldr	x1, [sp, #72]
   831a0:	b0000000 	adrp	x0, 84000 <i2c_recv+0xa0>
   831a4:	911c6000 	add	x0, x0, #0x718
   831a8:	9400017a 	bl	83790 <printk>
   831ac:	f94027e0 	ldr	x0, [sp, #72]
   831b0:	f9400000 	ldr	x0, [x0]
   831b4:	f9001fe0 	str	x0, [sp, #56]
   831b8:	f9401fe0 	ldr	x0, [sp, #56]
   831bc:	927df000 	and	x0, x0, #0xfffffffffffffff8
   831c0:	f9001fe0 	str	x0, [sp, #56]
   831c4:	f9401fe0 	ldr	x0, [sp, #56]
   831c8:	f9001be0 	str	x0, [sp, #48]
   831cc:	f94027e0 	ldr	x0, [sp, #72]
   831d0:	91002000 	add	x0, x0, #0x8
   831d4:	f90027e0 	str	x0, [sp, #72]
   831d8:	f94027e0 	ldr	x0, [sp, #72]
   831dc:	f9400000 	ldr	x0, [x0]
   831e0:	92400000 	and	x0, x0, #0x1
   831e4:	f100001f 	cmp	x0, #0x0
   831e8:	54fffd41 	b.ne	83190 <display_page_table+0x10c>  // b.any
   831ec:	f9402fe0 	ldr	x0, [sp, #88]
   831f0:	91002000 	add	x0, x0, #0x8
   831f4:	f9002fe0 	str	x0, [sp, #88]
   831f8:	f9402fe0 	ldr	x0, [sp, #88]
   831fc:	f9400000 	ldr	x0, [x0]
   83200:	92400000 	and	x0, x0, #0x1
   83204:	f100001f 	cmp	x0, #0x0
   83208:	54fffaa1 	b.ne	8315c <display_page_table+0xd8>  // b.any
   8320c:	d503201f 	nop
   83210:	d503201f 	nop
   83214:	a8c67bfd 	ldp	x29, x30, [sp], #96
   83218:	d65f03c0 	ret

000000000008321c <func_core_entry>:
   8321c:	a9bf7bfd 	stp	x29, x30, [sp, #-16]!
   83220:	910003fd 	mov	x29, sp
   83224:	b0000000 	adrp	x0, 84000 <i2c_recv+0xa0>
   83228:	911ca000 	add	x0, x0, #0x728
   8322c:	9400040a 	bl	84254 <uart_write_string>
   83230:	14000000 	b	83230 <func_core_entry+0x14>

0000000000083234 <func_core_aux_entry>:
   83234:	a9bf7bfd 	stp	x29, x30, [sp, #-16]!
   83238:	910003fd 	mov	x29, sp
   8323c:	b0000000 	adrp	x0, 84000 <i2c_recv+0xa0>
   83240:	911d0000 	add	x0, x0, #0x740
   83244:	94000404 	bl	84254 <uart_write_string>
   83248:	14000000 	b	83248 <func_core_aux_entry+0x14>

000000000008324c <user_core_entry>:
   8324c:	a9bf7bfd 	stp	x29, x30, [sp, #-16]!
   83250:	910003fd 	mov	x29, sp
   83254:	b0000000 	adrp	x0, 84000 <i2c_recv+0xa0>
   83258:	911d6000 	add	x0, x0, #0x758
   8325c:	9400014d 	bl	83790 <printk>
   83260:	14000000 	b	83260 <user_core_entry+0x14>

0000000000083264 <comm_core_entry>:
   83264:	a9bf7bfd 	stp	x29, x30, [sp, #-16]!
   83268:	910003fd 	mov	x29, sp
   8326c:	b0000000 	adrp	x0, 84000 <i2c_recv+0xa0>
   83270:	911dc000 	add	x0, x0, #0x770
   83274:	940003f8 	bl	84254 <uart_write_string>
   83278:	52800021 	mov	w1, #0x1                   	// #1
   8327c:	528000e0 	mov	w0, #0x7                   	// #7
   83280:	94000487 	bl	8449c <gpio_pin_func_select>
   83284:	528000e0 	mov	w0, #0x7                   	// #7
   83288:	940004bd 	bl	8457c <gpio_pin_enable>
   8328c:	528000e0 	mov	w0, #0x7                   	// #7
   83290:	940004df 	bl	8460c <gpio_set>
   83294:	d284e200 	mov	x0, #0x2710                	// #10000
   83298:	97fff9d4 	bl	819e8 <delay>
   8329c:	528000e0 	mov	w0, #0x7                   	// #7
   832a0:	940004e7 	bl	8463c <gpio_clear>
   832a4:	d284e200 	mov	x0, #0x2710                	// #10000
   832a8:	97fff9d0 	bl	819e8 <delay>
   832ac:	17fffff8 	b	8328c <comm_core_entry+0x28>

00000000000832b0 <program_gic>:
   832b0:	d2964000 	mov	x0, #0xb200                	// #45568
   832b4:	f2a7e000 	movk	x0, #0x3f00, lsl #16
   832b8:	12800001 	mov	w1, #0xffffffff            	// #-1
   832bc:	b9002401 	str	w1, [x0, #36]
   832c0:	d2964000 	mov	x0, #0xb200                	// #45568
   832c4:	f2a7e000 	movk	x0, #0x3f00, lsl #16
   832c8:	12800001 	mov	w1, #0xffffffff            	// #-1
   832cc:	b9001c01 	str	w1, [x0, #28]
   832d0:	d2964000 	mov	x0, #0xb200                	// #45568
   832d4:	f2a7e000 	movk	x0, #0x3f00, lsl #16
   832d8:	12800001 	mov	w1, #0xffffffff            	// #-1
   832dc:	b9002001 	str	w1, [x0, #32]
   832e0:	d2964000 	mov	x0, #0xb200                	// #45568
   832e4:	f2a7e000 	movk	x0, #0x3f00, lsl #16
   832e8:	52800021 	mov	w1, #0x1                   	// #1
   832ec:	b9001801 	str	w1, [x0, #24]
   832f0:	d503201f 	nop
   832f4:	d65f03c0 	ret

00000000000832f8 <external_async_irq_handler>:
   832f8:	a9be7bfd 	stp	x29, x30, [sp, #-32]!
   832fc:	910003fd 	mov	x29, sp
   83300:	39007fff 	strb	wzr, [sp, #31]
   83304:	39007bff 	strb	wzr, [sp, #30]
   83308:	97fff412 	bl	80350 <read_core0_irq_status>
   8330c:	d341fc00 	lsr	x0, x0, #1
   83310:	f100001f 	cmp	x0, #0x0
   83314:	1a9f07e0 	cset	w0, ne  // ne = any
   83318:	12001c00 	and	w0, w0, #0xff
   8331c:	39007fe0 	strb	w0, [sp, #31]
   83320:	97fff40f 	bl	8035c <read_core0_timer_status>
   83324:	927e0000 	and	x0, x0, #0x4
   83328:	f100001f 	cmp	x0, #0x0
   8332c:	1a9f07e0 	cset	w0, ne  // ne = any
   83330:	12001c00 	and	w0, w0, #0xff
   83334:	39007be0 	strb	w0, [sp, #30]
   83338:	39407fe0 	ldrb	w0, [sp, #31]
   8333c:	7100001f 	cmp	w0, #0x0
   83340:	540000a0 	b.eq	83354 <external_async_irq_handler+0x5c>  // b.none
   83344:	39407be0 	ldrb	w0, [sp, #30]
   83348:	7100001f 	cmp	w0, #0x0
   8334c:	54000040 	b.eq	83354 <external_async_irq_handler+0x5c>  // b.none
   83350:	94000280 	bl	83d50 <timer_irq_handler>
   83354:	d503201f 	nop
   83358:	a8c27bfd 	ldp	x29, x30, [sp], #32
   8335c:	d65f03c0 	ret

0000000000083360 <isr_dispatcher>:
   83360:	a9be7bfd 	stp	x29, x30, [sp, #-32]!
   83364:	910003fd 	mov	x29, sp
   83368:	f9000fe0 	str	x0, [sp, #24]
   8336c:	f9400fe0 	ldr	x0, [sp, #24]
   83370:	f9408000 	ldr	x0, [x0, #256]
   83374:	f100041f 	cmp	x0, #0x1
   83378:	54000080 	b.eq	83388 <isr_dispatcher+0x28>  // b.none
   8337c:	f100081f 	cmp	x0, #0x2
   83380:	54000080 	b.eq	83390 <isr_dispatcher+0x30>  // b.none
   83384:	14000004 	b	83394 <isr_dispatcher+0x34>
   83388:	97ffffdc 	bl	832f8 <external_async_irq_handler>
   8338c:	14000002 	b	83394 <isr_dispatcher+0x34>
   83390:	d503201f 	nop
   83394:	d503201f 	nop
   83398:	a8c27bfd 	ldp	x29, x30, [sp], #32
   8339c:	d65f03c0 	ret

00000000000833a0 <stack_access_self_test>:
   833a0:	a9be7bfd 	stp	x29, x30, [sp, #-32]!
   833a4:	910003fd 	mov	x29, sp
   833a8:	39007fe0 	strb	w0, [sp, #31]
   833ac:	39407fe0 	ldrb	w0, [sp, #31]
   833b0:	71000c1f 	cmp	w0, #0x3
   833b4:	54000420 	b.eq	83438 <stack_access_self_test+0x98>  // b.none
   833b8:	71000c1f 	cmp	w0, #0x3
   833bc:	5400048c 	b.gt	8344c <stack_access_self_test+0xac>
   833c0:	7100081f 	cmp	w0, #0x2
   833c4:	54000300 	b.eq	83424 <stack_access_self_test+0x84>  // b.none
   833c8:	7100081f 	cmp	w0, #0x2
   833cc:	5400040c 	b.gt	8344c <stack_access_self_test+0xac>
   833d0:	7100001f 	cmp	w0, #0x0
   833d4:	54000080 	b.eq	833e4 <stack_access_self_test+0x44>  // b.none
   833d8:	7100041f 	cmp	w0, #0x1
   833dc:	540001a0 	b.eq	83410 <stack_access_self_test+0x70>  // b.none
   833e0:	1400001b 	b	8344c <stack_access_self_test+0xac>
   833e4:	d2800000 	mov	x0, #0x0                   	// #0
   833e8:	97fff9a3 	bl	81a74 <get_core_stack>
   833ec:	d2820001 	mov	x1, #0x1000                	// #4096
   833f0:	97fff969 	bl	81994 <memclr>
   833f4:	d2800000 	mov	x0, #0x0                   	// #0
   833f8:	97fff99f 	bl	81a74 <get_core_stack>
   833fc:	d2820002 	mov	x2, #0x1000                	// #4096
   83400:	d297dde1 	mov	x1, #0xbeef                	// #48879
   83404:	f2bbd5a1 	movk	x1, #0xdead, lsl #16
   83408:	97fff96c 	bl	819b8 <memset>
   8340c:	14000011 	b	83450 <stack_access_self_test+0xb0>
   83410:	d2800020 	mov	x0, #0x1                   	// #1
   83414:	97fff998 	bl	81a74 <get_core_stack>
   83418:	d2820001 	mov	x1, #0x1000                	// #4096
   8341c:	97fff95e 	bl	81994 <memclr>
   83420:	1400000c 	b	83450 <stack_access_self_test+0xb0>
   83424:	d2800040 	mov	x0, #0x2                   	// #2
   83428:	97fff993 	bl	81a74 <get_core_stack>
   8342c:	d2820001 	mov	x1, #0x1000                	// #4096
   83430:	97fff959 	bl	81994 <memclr>
   83434:	14000007 	b	83450 <stack_access_self_test+0xb0>
   83438:	d2800060 	mov	x0, #0x3                   	// #3
   8343c:	97fff98e 	bl	81a74 <get_core_stack>
   83440:	d2820001 	mov	x1, #0x1000                	// #4096
   83444:	97fff954 	bl	81994 <memclr>
   83448:	14000002 	b	83450 <stack_access_self_test+0xb0>
   8344c:	d503201f 	nop
   83450:	d503201f 	nop
   83454:	a8c27bfd 	ldp	x29, x30, [sp], #32
   83458:	d65f03c0 	ret

000000000008345c <read_string>:
   8345c:	d100c3ff 	sub	sp, sp, #0x30
   83460:	f9000fe0 	str	x0, [sp, #24]
   83464:	b90017e1 	str	w1, [sp, #20]
   83468:	f90007e2 	str	x2, [sp, #8]
   8346c:	b9002fff 	str	wzr, [sp, #44]
   83470:	b9002fff 	str	wzr, [sp, #44]
   83474:	1400000f 	b	834b0 <read_string+0x54>
   83478:	b9802fe0 	ldrsw	x0, [sp, #44]
   8347c:	f94007e1 	ldr	x1, [sp, #8]
   83480:	8b000021 	add	x1, x1, x0
   83484:	b94017e0 	ldr	w0, [sp, #20]
   83488:	11000402 	add	w2, w0, #0x1
   8348c:	b90017e2 	str	w2, [sp, #20]
   83490:	93407c00 	sxtw	x0, w0
   83494:	f9400fe2 	ldr	x2, [sp, #24]
   83498:	8b000040 	add	x0, x2, x0
   8349c:	39400021 	ldrb	w1, [x1]
   834a0:	39000001 	strb	w1, [x0]
   834a4:	b9402fe0 	ldr	w0, [sp, #44]
   834a8:	11000400 	add	w0, w0, #0x1
   834ac:	b9002fe0 	str	w0, [sp, #44]
   834b0:	b9802fe0 	ldrsw	x0, [sp, #44]
   834b4:	f94007e1 	ldr	x1, [sp, #8]
   834b8:	8b000020 	add	x0, x1, x0
   834bc:	39400000 	ldrb	w0, [x0]
   834c0:	7100001f 	cmp	w0, #0x0
   834c4:	54fffda1 	b.ne	83478 <read_string+0x1c>  // b.any
   834c8:	b9402fe0 	ldr	w0, [sp, #44]
   834cc:	9100c3ff 	add	sp, sp, #0x30
   834d0:	d65f03c0 	ret

00000000000834d4 <hex_to_string>:
   834d4:	d10183ff 	sub	sp, sp, #0x60
   834d8:	f9000fe0 	str	x0, [sp, #24]
   834dc:	b90017e1 	str	w1, [sp, #20]
   834e0:	f90007e2 	str	x2, [sp, #8]
   834e4:	b0000000 	adrp	x0, 84000 <i2c_recv+0xa0>
   834e8:	911e6000 	add	x0, x0, #0x798
   834ec:	a9400400 	ldp	x0, x1, [x0]
   834f0:	a90287e0 	stp	x0, x1, [sp, #40]
   834f4:	b9005fff 	str	wzr, [sp, #92]
   834f8:	f94007e0 	ldr	x0, [sp, #8]
   834fc:	92400c01 	and	x1, x0, #0xf
   83500:	b9405fe0 	ldr	w0, [sp, #92]
   83504:	11000402 	add	w2, w0, #0x1
   83508:	b9005fe2 	str	w2, [sp, #92]
   8350c:	9100a3e2 	add	x2, sp, #0x28
   83510:	38616842 	ldrb	w2, [x2, x1]
   83514:	93407c00 	sxtw	x0, w0
   83518:	9100e3e1 	add	x1, sp, #0x38
   8351c:	38206822 	strb	w2, [x1, x0]
   83520:	f94007e0 	ldr	x0, [sp, #8]
   83524:	d344fc00 	lsr	x0, x0, #4
   83528:	f90007e0 	str	x0, [sp, #8]
   8352c:	f94007e0 	ldr	x0, [sp, #8]
   83530:	f100001f 	cmp	x0, #0x0
   83534:	54fffe21 	b.ne	834f8 <hex_to_string+0x24>  // b.any
   83538:	b9405fe0 	ldr	w0, [sp, #92]
   8353c:	51000400 	sub	w0, w0, #0x1
   83540:	b9005be0 	str	w0, [sp, #88]
   83544:	1400000e 	b	8357c <hex_to_string+0xa8>
   83548:	b94017e0 	ldr	w0, [sp, #20]
   8354c:	11000401 	add	w1, w0, #0x1
   83550:	b90017e1 	str	w1, [sp, #20]
   83554:	93407c00 	sxtw	x0, w0
   83558:	f9400fe1 	ldr	x1, [sp, #24]
   8355c:	8b000020 	add	x0, x1, x0
   83560:	b9805be1 	ldrsw	x1, [sp, #88]
   83564:	9100e3e2 	add	x2, sp, #0x38
   83568:	38616841 	ldrb	w1, [x2, x1]
   8356c:	39000001 	strb	w1, [x0]
   83570:	b9405be0 	ldr	w0, [sp, #88]
   83574:	51000400 	sub	w0, w0, #0x1
   83578:	b9005be0 	str	w0, [sp, #88]
   8357c:	b9405be0 	ldr	w0, [sp, #88]
   83580:	7100001f 	cmp	w0, #0x0
   83584:	54fffe2a 	b.ge	83548 <hex_to_string+0x74>  // b.tcont
   83588:	b94017e0 	ldr	w0, [sp, #20]
   8358c:	11000401 	add	w1, w0, #0x1
   83590:	b90017e1 	str	w1, [sp, #20]
   83594:	93407c00 	sxtw	x0, w0
   83598:	f9400fe1 	ldr	x1, [sp, #24]
   8359c:	8b000020 	add	x0, x1, x0
   835a0:	52800901 	mov	w1, #0x48                  	// #72
   835a4:	39000001 	strb	w1, [x0]
   835a8:	b9405fe0 	ldr	w0, [sp, #92]
   835ac:	11000400 	add	w0, w0, #0x1
   835b0:	910183ff 	add	sp, sp, #0x60
   835b4:	d65f03c0 	ret

00000000000835b8 <udecimal_to_string>:
   835b8:	d10183ff 	sub	sp, sp, #0x60
   835bc:	f9000fe0 	str	x0, [sp, #24]
   835c0:	b90017e1 	str	w1, [sp, #20]
   835c4:	f90007e2 	str	x2, [sp, #8]
   835c8:	b0000000 	adrp	x0, 84000 <i2c_recv+0xa0>
   835cc:	911ea001 	add	x1, x0, #0x7a8
   835d0:	910123e0 	add	x0, sp, #0x48
   835d4:	f9400022 	ldr	x2, [x1]
   835d8:	f9000002 	str	x2, [x0]
   835dc:	79401021 	ldrh	w1, [x1, #8]
   835e0:	79001001 	strh	w1, [x0, #8]
   835e4:	b9005fff 	str	wzr, [sp, #92]
   835e8:	f94007e2 	ldr	x2, [sp, #8]
   835ec:	b202e7e0 	mov	x0, #0xcccccccccccccccc    	// #-3689348814741910324
   835f0:	f29999a0 	movk	x0, #0xcccd
   835f4:	9bc07c40 	umulh	x0, x2, x0
   835f8:	d343fc01 	lsr	x1, x0, #3
   835fc:	aa0103e0 	mov	x0, x1
   83600:	d37ef400 	lsl	x0, x0, #2
   83604:	8b010000 	add	x0, x0, x1
   83608:	d37ff800 	lsl	x0, x0, #1
   8360c:	cb000041 	sub	x1, x2, x0
   83610:	b9405fe0 	ldr	w0, [sp, #92]
   83614:	11000402 	add	w2, w0, #0x1
   83618:	b9005fe2 	str	w2, [sp, #92]
   8361c:	910123e2 	add	x2, sp, #0x48
   83620:	38616842 	ldrb	w2, [x2, x1]
   83624:	93407c00 	sxtw	x0, w0
   83628:	9100a3e1 	add	x1, sp, #0x28
   8362c:	38206822 	strb	w2, [x1, x0]
   83630:	f94007e1 	ldr	x1, [sp, #8]
   83634:	b202e7e0 	mov	x0, #0xcccccccccccccccc    	// #-3689348814741910324
   83638:	f29999a0 	movk	x0, #0xcccd
   8363c:	9bc07c20 	umulh	x0, x1, x0
   83640:	d343fc00 	lsr	x0, x0, #3
   83644:	f90007e0 	str	x0, [sp, #8]
   83648:	f94007e0 	ldr	x0, [sp, #8]
   8364c:	f100001f 	cmp	x0, #0x0
   83650:	54fffcc1 	b.ne	835e8 <udecimal_to_string+0x30>  // b.any
   83654:	b9405fe0 	ldr	w0, [sp, #92]
   83658:	51000400 	sub	w0, w0, #0x1
   8365c:	b9005be0 	str	w0, [sp, #88]
   83660:	1400000e 	b	83698 <udecimal_to_string+0xe0>
   83664:	b94017e0 	ldr	w0, [sp, #20]
   83668:	11000401 	add	w1, w0, #0x1
   8366c:	b90017e1 	str	w1, [sp, #20]
   83670:	93407c00 	sxtw	x0, w0
   83674:	f9400fe1 	ldr	x1, [sp, #24]
   83678:	8b000020 	add	x0, x1, x0
   8367c:	b9805be1 	ldrsw	x1, [sp, #88]
   83680:	9100a3e2 	add	x2, sp, #0x28
   83684:	38616841 	ldrb	w1, [x2, x1]
   83688:	39000001 	strb	w1, [x0]
   8368c:	b9405be0 	ldr	w0, [sp, #88]
   83690:	51000400 	sub	w0, w0, #0x1
   83694:	b9005be0 	str	w0, [sp, #88]
   83698:	b9405be0 	ldr	w0, [sp, #88]
   8369c:	7100001f 	cmp	w0, #0x0
   836a0:	54fffe2a 	b.ge	83664 <udecimal_to_string+0xac>  // b.tcont
   836a4:	b9405fe0 	ldr	w0, [sp, #92]
   836a8:	910183ff 	add	sp, sp, #0x60
   836ac:	d65f03c0 	ret

00000000000836b0 <decimal_to_string>:
   836b0:	a9bc7bfd 	stp	x29, x30, [sp, #-64]!
   836b4:	910003fd 	mov	x29, sp
   836b8:	f90017e0 	str	x0, [sp, #40]
   836bc:	b90027e1 	str	w1, [sp, #36]
   836c0:	f9000fe2 	str	x2, [sp, #24]
   836c4:	b9003fff 	str	wzr, [sp, #60]
   836c8:	f9400fe0 	ldr	x0, [sp, #24]
   836cc:	f100001f 	cmp	x0, #0x0
   836d0:	540001ca 	b.ge	83708 <decimal_to_string+0x58>  // b.tcont
   836d4:	f9400fe0 	ldr	x0, [sp, #24]
   836d8:	cb0003e0 	neg	x0, x0
   836dc:	f9000fe0 	str	x0, [sp, #24]
   836e0:	b94027e0 	ldr	w0, [sp, #36]
   836e4:	11000401 	add	w1, w0, #0x1
   836e8:	b90027e1 	str	w1, [sp, #36]
   836ec:	93407c00 	sxtw	x0, w0
   836f0:	f94017e1 	ldr	x1, [sp, #40]
   836f4:	8b000020 	add	x0, x1, x0
   836f8:	528005a1 	mov	w1, #0x2d                  	// #45
   836fc:	39000001 	strb	w1, [x0]
   83700:	52800020 	mov	w0, #0x1                   	// #1
   83704:	b9003fe0 	str	w0, [sp, #60]
   83708:	f9400fe0 	ldr	x0, [sp, #24]
   8370c:	aa0003e2 	mov	x2, x0
   83710:	b94027e1 	ldr	w1, [sp, #36]
   83714:	f94017e0 	ldr	x0, [sp, #40]
   83718:	97ffffa8 	bl	835b8 <udecimal_to_string>
   8371c:	2a0003e1 	mov	w1, w0
   83720:	b9403fe0 	ldr	w0, [sp, #60]
   83724:	0b010000 	add	w0, w0, w1
   83728:	b9003fe0 	str	w0, [sp, #60]
   8372c:	b9403fe0 	ldr	w0, [sp, #60]
   83730:	a8c47bfd 	ldp	x29, x30, [sp], #64
   83734:	d65f03c0 	ret

0000000000083738 <write_console>:
   83738:	a9bd7bfd 	stp	x29, x30, [sp, #-48]!
   8373c:	910003fd 	mov	x29, sp
   83740:	f9000fe0 	str	x0, [sp, #24]
   83744:	b90017e1 	str	w1, [sp, #20]
   83748:	b9002fff 	str	wzr, [sp, #44]
   8374c:	14000009 	b	83770 <write_console+0x38>
   83750:	b9802fe0 	ldrsw	x0, [sp, #44]
   83754:	f9400fe1 	ldr	x1, [sp, #24]
   83758:	8b000020 	add	x0, x1, x0
   8375c:	39400000 	ldrb	w0, [x0]
   83760:	9400028f 	bl	8419c <uart_send_c>
   83764:	b9402fe0 	ldr	w0, [sp, #44]
   83768:	11000400 	add	w0, w0, #0x1
   8376c:	b9002fe0 	str	w0, [sp, #44]
   83770:	b9402fe1 	ldr	w1, [sp, #44]
   83774:	b94017e0 	ldr	w0, [sp, #20]
   83778:	6b00003f 	cmp	w1, w0
   8377c:	54fffeab 	b.lt	83750 <write_console+0x18>  // b.tstop
   83780:	d503201f 	nop
   83784:	d503201f 	nop
   83788:	a8c37bfd 	ldp	x29, x30, [sp], #48
   8378c:	d65f03c0 	ret

0000000000083790 <printk>:
   83790:	d11283ff 	sub	sp, sp, #0x4a0
   83794:	a9007bfd 	stp	x29, x30, [sp]
   83798:	910003fd 	mov	x29, sp
   8379c:	f9000fe0 	str	x0, [sp, #24]
   837a0:	f90237e1 	str	x1, [sp, #1128]
   837a4:	f9023be2 	str	x2, [sp, #1136]
   837a8:	f9023fe3 	str	x3, [sp, #1144]
   837ac:	f90243e4 	str	x4, [sp, #1152]
   837b0:	f90247e5 	str	x5, [sp, #1160]
   837b4:	f9024be6 	str	x6, [sp, #1168]
   837b8:	f9024fe7 	str	x7, [sp, #1176]
   837bc:	b9045fff 	str	wzr, [sp, #1116]
   837c0:	f9022bff 	str	xzr, [sp, #1104]
   837c4:	f90227ff 	str	xzr, [sp, #1096]
   837c8:	911283e0 	add	x0, sp, #0x4a0
   837cc:	f90017e0 	str	x0, [sp, #40]
   837d0:	911283e0 	add	x0, sp, #0x4a0
   837d4:	f9001be0 	str	x0, [sp, #48]
   837d8:	911183e0 	add	x0, sp, #0x460
   837dc:	f9001fe0 	str	x0, [sp, #56]
   837e0:	128006e0 	mov	w0, #0xffffffc8            	// #-56
   837e4:	b90043e0 	str	w0, [sp, #64]
   837e8:	b90047ff 	str	wzr, [sp, #68]
   837ec:	b9045bff 	str	wzr, [sp, #1112]
   837f0:	140000b1 	b	83ab4 <printk+0x324>
   837f4:	b9845be0 	ldrsw	x0, [sp, #1112]
   837f8:	f9400fe1 	ldr	x1, [sp, #24]
   837fc:	8b000020 	add	x0, x1, x0
   83800:	39400000 	ldrb	w0, [x0]
   83804:	7100941f 	cmp	w0, #0x25
   83808:	54000180 	b.eq	83838 <printk+0xa8>  // b.none
   8380c:	b9845be0 	ldrsw	x0, [sp, #1112]
   83810:	f9400fe1 	ldr	x1, [sp, #24]
   83814:	8b000021 	add	x1, x1, x0
   83818:	b9445fe0 	ldr	w0, [sp, #1116]
   8381c:	11000402 	add	w2, w0, #0x1
   83820:	b9045fe2 	str	w2, [sp, #1116]
   83824:	39400022 	ldrb	w2, [x1]
   83828:	93407c00 	sxtw	x0, w0
   8382c:	910123e1 	add	x1, sp, #0x48
   83830:	38206822 	strb	w2, [x1, x0]
   83834:	1400009d 	b	83aa8 <printk+0x318>
   83838:	b9445be0 	ldr	w0, [sp, #1112]
   8383c:	11000400 	add	w0, w0, #0x1
   83840:	b9045be0 	str	w0, [sp, #1112]
   83844:	b9845be0 	ldrsw	x0, [sp, #1112]
   83848:	f9400fe1 	ldr	x1, [sp, #24]
   8384c:	8b000020 	add	x0, x1, x0
   83850:	39400000 	ldrb	w0, [x0]
   83854:	7101e01f 	cmp	w0, #0x78
   83858:	54000180 	b.eq	83888 <printk+0xf8>  // b.none
   8385c:	7101e01f 	cmp	w0, #0x78
   83860:	5400110c 	b.gt	83a80 <printk+0x2f0>
   83864:	7101d41f 	cmp	w0, #0x75
   83868:	54000500 	b.eq	83908 <printk+0x178>  // b.none
   8386c:	7101d41f 	cmp	w0, #0x75
   83870:	5400108c 	b.gt	83a80 <printk+0x2f0>
   83874:	7101901f 	cmp	w0, #0x64
   83878:	54000880 	b.eq	83988 <printk+0x1f8>  // b.none
   8387c:	7101cc1f 	cmp	w0, #0x73
   83880:	54000c20 	b.eq	83a04 <printk+0x274>  // b.none
   83884:	1400007f 	b	83a80 <printk+0x2f0>
   83888:	b94043e1 	ldr	w1, [sp, #64]
   8388c:	f94017e0 	ldr	x0, [sp, #40]
   83890:	7100003f 	cmp	w1, #0x0
   83894:	540000ab 	b.lt	838a8 <printk+0x118>  // b.tstop
   83898:	91003c01 	add	x1, x0, #0xf
   8389c:	927df021 	and	x1, x1, #0xfffffffffffffff8
   838a0:	f90017e1 	str	x1, [sp, #40]
   838a4:	1400000d 	b	838d8 <printk+0x148>
   838a8:	11002022 	add	w2, w1, #0x8
   838ac:	b90043e2 	str	w2, [sp, #64]
   838b0:	b94043e2 	ldr	w2, [sp, #64]
   838b4:	7100005f 	cmp	w2, #0x0
   838b8:	540000ad 	b.le	838cc <printk+0x13c>
   838bc:	91003c01 	add	x1, x0, #0xf
   838c0:	927df021 	and	x1, x1, #0xfffffffffffffff8
   838c4:	f90017e1 	str	x1, [sp, #40]
   838c8:	14000004 	b	838d8 <printk+0x148>
   838cc:	f9401be2 	ldr	x2, [sp, #48]
   838d0:	93407c20 	sxtw	x0, w1
   838d4:	8b000040 	add	x0, x2, x0
   838d8:	f9400000 	ldr	x0, [x0]
   838dc:	f9022be0 	str	x0, [sp, #1104]
   838e0:	f9422be1 	ldr	x1, [sp, #1104]
   838e4:	910123e0 	add	x0, sp, #0x48
   838e8:	aa0103e2 	mov	x2, x1
   838ec:	b9445fe1 	ldr	w1, [sp, #1116]
   838f0:	97fffef9 	bl	834d4 <hex_to_string>
   838f4:	2a0003e1 	mov	w1, w0
   838f8:	b9445fe0 	ldr	w0, [sp, #1116]
   838fc:	0b010000 	add	w0, w0, w1
   83900:	b9045fe0 	str	w0, [sp, #1116]
   83904:	14000069 	b	83aa8 <printk+0x318>
   83908:	b94043e1 	ldr	w1, [sp, #64]
   8390c:	f94017e0 	ldr	x0, [sp, #40]
   83910:	7100003f 	cmp	w1, #0x0
   83914:	540000ab 	b.lt	83928 <printk+0x198>  // b.tstop
   83918:	91003c01 	add	x1, x0, #0xf
   8391c:	927df021 	and	x1, x1, #0xfffffffffffffff8
   83920:	f90017e1 	str	x1, [sp, #40]
   83924:	1400000d 	b	83958 <printk+0x1c8>
   83928:	11002022 	add	w2, w1, #0x8
   8392c:	b90043e2 	str	w2, [sp, #64]
   83930:	b94043e2 	ldr	w2, [sp, #64]
   83934:	7100005f 	cmp	w2, #0x0
   83938:	540000ad 	b.le	8394c <printk+0x1bc>
   8393c:	91003c01 	add	x1, x0, #0xf
   83940:	927df021 	and	x1, x1, #0xfffffffffffffff8
   83944:	f90017e1 	str	x1, [sp, #40]
   83948:	14000004 	b	83958 <printk+0x1c8>
   8394c:	f9401be2 	ldr	x2, [sp, #48]
   83950:	93407c20 	sxtw	x0, w1
   83954:	8b000040 	add	x0, x2, x0
   83958:	f9400000 	ldr	x0, [x0]
   8395c:	f9022be0 	str	x0, [sp, #1104]
   83960:	f9422be1 	ldr	x1, [sp, #1104]
   83964:	910123e0 	add	x0, sp, #0x48
   83968:	aa0103e2 	mov	x2, x1
   8396c:	b9445fe1 	ldr	w1, [sp, #1116]
   83970:	97ffff12 	bl	835b8 <udecimal_to_string>
   83974:	2a0003e1 	mov	w1, w0
   83978:	b9445fe0 	ldr	w0, [sp, #1116]
   8397c:	0b010000 	add	w0, w0, w1
   83980:	b9045fe0 	str	w0, [sp, #1116]
   83984:	14000049 	b	83aa8 <printk+0x318>
   83988:	b94043e1 	ldr	w1, [sp, #64]
   8398c:	f94017e0 	ldr	x0, [sp, #40]
   83990:	7100003f 	cmp	w1, #0x0
   83994:	540000ab 	b.lt	839a8 <printk+0x218>  // b.tstop
   83998:	91003c01 	add	x1, x0, #0xf
   8399c:	927df021 	and	x1, x1, #0xfffffffffffffff8
   839a0:	f90017e1 	str	x1, [sp, #40]
   839a4:	1400000d 	b	839d8 <printk+0x248>
   839a8:	11002022 	add	w2, w1, #0x8
   839ac:	b90043e2 	str	w2, [sp, #64]
   839b0:	b94043e2 	ldr	w2, [sp, #64]
   839b4:	7100005f 	cmp	w2, #0x0
   839b8:	540000ad 	b.le	839cc <printk+0x23c>
   839bc:	91003c01 	add	x1, x0, #0xf
   839c0:	927df021 	and	x1, x1, #0xfffffffffffffff8
   839c4:	f90017e1 	str	x1, [sp, #40]
   839c8:	14000004 	b	839d8 <printk+0x248>
   839cc:	f9401be2 	ldr	x2, [sp, #48]
   839d0:	93407c20 	sxtw	x0, w1
   839d4:	8b000040 	add	x0, x2, x0
   839d8:	f9400000 	ldr	x0, [x0]
   839dc:	f9022be0 	str	x0, [sp, #1104]
   839e0:	910123e0 	add	x0, sp, #0x48
   839e4:	f9422be2 	ldr	x2, [sp, #1104]
   839e8:	b9445fe1 	ldr	w1, [sp, #1116]
   839ec:	97ffff31 	bl	836b0 <decimal_to_string>
   839f0:	2a0003e1 	mov	w1, w0
   839f4:	b9445fe0 	ldr	w0, [sp, #1116]
   839f8:	0b010000 	add	w0, w0, w1
   839fc:	b9045fe0 	str	w0, [sp, #1116]
   83a00:	1400002a 	b	83aa8 <printk+0x318>
   83a04:	b94043e1 	ldr	w1, [sp, #64]
   83a08:	f94017e0 	ldr	x0, [sp, #40]
   83a0c:	7100003f 	cmp	w1, #0x0
   83a10:	540000ab 	b.lt	83a24 <printk+0x294>  // b.tstop
   83a14:	91003c01 	add	x1, x0, #0xf
   83a18:	927df021 	and	x1, x1, #0xfffffffffffffff8
   83a1c:	f90017e1 	str	x1, [sp, #40]
   83a20:	1400000d 	b	83a54 <printk+0x2c4>
   83a24:	11002022 	add	w2, w1, #0x8
   83a28:	b90043e2 	str	w2, [sp, #64]
   83a2c:	b94043e2 	ldr	w2, [sp, #64]
   83a30:	7100005f 	cmp	w2, #0x0
   83a34:	540000ad 	b.le	83a48 <printk+0x2b8>
   83a38:	91003c01 	add	x1, x0, #0xf
   83a3c:	927df021 	and	x1, x1, #0xfffffffffffffff8
   83a40:	f90017e1 	str	x1, [sp, #40]
   83a44:	14000004 	b	83a54 <printk+0x2c4>
   83a48:	f9401be2 	ldr	x2, [sp, #48]
   83a4c:	93407c20 	sxtw	x0, w1
   83a50:	8b000040 	add	x0, x2, x0
   83a54:	f9400000 	ldr	x0, [x0]
   83a58:	f90227e0 	str	x0, [sp, #1096]
   83a5c:	910123e0 	add	x0, sp, #0x48
   83a60:	f94227e2 	ldr	x2, [sp, #1096]
   83a64:	b9445fe1 	ldr	w1, [sp, #1116]
   83a68:	97fffe7d 	bl	8345c <read_string>
   83a6c:	2a0003e1 	mov	w1, w0
   83a70:	b9445fe0 	ldr	w0, [sp, #1116]
   83a74:	0b010000 	add	w0, w0, w1
   83a78:	b9045fe0 	str	w0, [sp, #1116]
   83a7c:	1400000b 	b	83aa8 <printk+0x318>
   83a80:	b9445fe0 	ldr	w0, [sp, #1116]
   83a84:	11000401 	add	w1, w0, #0x1
   83a88:	b9045fe1 	str	w1, [sp, #1116]
   83a8c:	93407c00 	sxtw	x0, w0
   83a90:	910123e1 	add	x1, sp, #0x48
   83a94:	528004a2 	mov	w2, #0x25                  	// #37
   83a98:	38206822 	strb	w2, [x1, x0]
   83a9c:	b9445be0 	ldr	w0, [sp, #1112]
   83aa0:	51000400 	sub	w0, w0, #0x1
   83aa4:	b9045be0 	str	w0, [sp, #1112]
   83aa8:	b9445be0 	ldr	w0, [sp, #1112]
   83aac:	11000400 	add	w0, w0, #0x1
   83ab0:	b9045be0 	str	w0, [sp, #1112]
   83ab4:	b9845be0 	ldrsw	x0, [sp, #1112]
   83ab8:	f9400fe1 	ldr	x1, [sp, #24]
   83abc:	8b000020 	add	x0, x1, x0
   83ac0:	39400000 	ldrb	w0, [x0]
   83ac4:	7100001f 	cmp	w0, #0x0
   83ac8:	54ffe961 	b.ne	837f4 <printk+0x64>  // b.any
   83acc:	910123e0 	add	x0, sp, #0x48
   83ad0:	b9445fe1 	ldr	w1, [sp, #1116]
   83ad4:	97ffff19 	bl	83738 <write_console>
   83ad8:	b9445fe0 	ldr	w0, [sp, #1116]
   83adc:	a9407bfd 	ldp	x29, x30, [sp]
   83ae0:	911283ff 	add	sp, sp, #0x4a0
   83ae4:	d65f03c0 	ret

0000000000083ae8 <main>:
   83ae8:	a9be7bfd 	stp	x29, x30, [sp, #-32]!
   83aec:	910003fd 	mov	x29, sp
   83af0:	97fff344 	bl	80800 <interrupt_init>
   83af4:	94000263 	bl	84480 <devices_init>
   83af8:	97fff793 	bl	81944 <enable_irq>
   83afc:	52800020 	mov	w0, #0x1                   	// #1
   83b00:	39007fe0 	strb	w0, [sp, #31]
   83b04:	14000027 	b	83ba0 <main+0xb8>
   83b08:	39407fe0 	ldrb	w0, [sp, #31]
   83b0c:	71000c1f 	cmp	w0, #0x3
   83b10:	54000300 	b.eq	83b70 <main+0x88>  // b.none
   83b14:	71000c1f 	cmp	w0, #0x3
   83b18:	540003ec 	b.gt	83b94 <main+0xac>
   83b1c:	7100041f 	cmp	w0, #0x1
   83b20:	54000080 	b.eq	83b30 <main+0x48>  // b.none
   83b24:	7100081f 	cmp	w0, #0x2
   83b28:	54000120 	b.eq	83b4c <main+0x64>  // b.none
   83b2c:	1400001a 	b	83b94 <main+0xac>
   83b30:	900000a0 	adrp	x0, 97000 <core_count>
   83b34:	f9401c01 	ldr	x1, [x0, #56]
   83b38:	900000a0 	adrp	x0, 97000 <core_count>
   83b3c:	f9400800 	ldr	x0, [x0, #16]
   83b40:	f9000001 	str	x1, [x0]
   83b44:	d503209f 	sev
   83b48:	14000013 	b	83b94 <main+0xac>
   83b4c:	900000a0 	adrp	x0, 97000 <core_count>
   83b50:	f9402c01 	ldr	x1, [x0, #88]
   83b54:	d2e00020 	mov	x0, #0x1000000000000       	// #281474976710656
   83b58:	8b000021 	add	x1, x1, x0
   83b5c:	900000a0 	adrp	x0, 97000 <core_count>
   83b60:	f9401000 	ldr	x0, [x0, #32]
   83b64:	f9000001 	str	x1, [x0]
   83b68:	d503209f 	sev
   83b6c:	1400000a 	b	83b94 <main+0xac>
   83b70:	900000a0 	adrp	x0, 97000 <core_count>
   83b74:	f9402801 	ldr	x1, [x0, #80]
   83b78:	d2e00020 	mov	x0, #0x1000000000000       	// #281474976710656
   83b7c:	8b000021 	add	x1, x1, x0
   83b80:	900000a0 	adrp	x0, 97000 <core_count>
   83b84:	f9403000 	ldr	x0, [x0, #96]
   83b88:	f9000001 	str	x1, [x0]
   83b8c:	d503209f 	sev
   83b90:	d503201f 	nop
   83b94:	39407fe0 	ldrb	w0, [sp, #31]
   83b98:	11000400 	add	w0, w0, #0x1
   83b9c:	39007fe0 	strb	w0, [sp, #31]
   83ba0:	900000a0 	adrp	x0, 97000 <core_count>
   83ba4:	91000000 	add	x0, x0, #0x0
   83ba8:	39400000 	ldrb	w0, [x0]
   83bac:	39407fe1 	ldrb	w1, [sp, #31]
   83bb0:	6b00003f 	cmp	w1, w0
   83bb4:	54fffaa3 	b.cc	83b08 <main+0x20>  // b.lo, b.ul, b.last
   83bb8:	97fffda5 	bl	8324c <user_core_entry>
   83bbc:	52800000 	mov	w0, #0x0                   	// #0
   83bc0:	a8c27bfd 	ldp	x29, x30, [sp], #32
   83bc4:	d65f03c0 	ret

0000000000083bc8 <set_up_boot_strap_page_table>:
   83bc8:	d503201f 	nop
   83bcc:	d65f03c0 	ret

0000000000083bd0 <kmalloc>:
   83bd0:	d503201f 	nop
   83bd4:	d65f03c0 	ret

0000000000083bd8 <kfree>:
   83bd8:	d503201f 	nop
   83bdc:	d65f03c0 	ret

0000000000083be0 <mm_init>:
   83be0:	a9bf7bfd 	stp	x29, x30, [sp, #-16]!
   83be4:	910003fd 	mov	x29, sp
   83be8:	b00000a0 	adrp	x0, 98000 <spiRecvBuf>
   83bec:	91102000 	add	x0, x0, #0x408
   83bf0:	94000004 	bl	83c00 <physical_segment_init>
   83bf4:	d503201f 	nop
   83bf8:	a8c17bfd 	ldp	x29, x30, [sp], #16
   83bfc:	d65f03c0 	ret

0000000000083c00 <physical_segment_init>:
   83c00:	d10083ff 	sub	sp, sp, #0x20
   83c04:	f90007e0 	str	x0, [sp, #8]
   83c08:	900000a0 	adrp	x0, 97000 <core_count>
   83c0c:	f9401400 	ldr	x0, [x0, #40]
   83c10:	f9400001 	ldr	x1, [x0]
   83c14:	f94007e0 	ldr	x0, [sp, #8]
   83c18:	f9000001 	str	x1, [x0]
   83c1c:	900000a0 	adrp	x0, 97000 <core_count>
   83c20:	f9402000 	ldr	x0, [x0, #64]
   83c24:	f9400001 	ldr	x1, [x0]
   83c28:	f94007e0 	ldr	x0, [sp, #8]
   83c2c:	f9000401 	str	x1, [x0, #8]
   83c30:	f94007e0 	ldr	x0, [sp, #8]
   83c34:	f9400401 	ldr	x1, [x0, #8]
   83c38:	f94007e0 	ldr	x0, [sp, #8]
   83c3c:	f9400000 	ldr	x0, [x0]
   83c40:	cb000020 	sub	x0, x1, x0
   83c44:	f9000fe0 	str	x0, [sp, #24]
   83c48:	f9400fe0 	ldr	x0, [sp, #24]
   83c4c:	913ffc00 	add	x0, x0, #0xfff
   83c50:	926ba800 	and	x0, x0, #0xffffffffffe00000
   83c54:	f9000fe0 	str	x0, [sp, #24]
   83c58:	f94007e0 	ldr	x0, [sp, #8]
   83c5c:	f9400fe1 	ldr	x1, [sp, #24]
   83c60:	f9000801 	str	x1, [x0, #16]
   83c64:	900000a0 	adrp	x0, 97000 <core_count>
   83c68:	f9401800 	ldr	x0, [x0, #48]
   83c6c:	39400000 	ldrb	w0, [x0]
   83c70:	92401c01 	and	x1, x0, #0xff
   83c74:	f94007e0 	ldr	x0, [sp, #8]
   83c78:	f9001401 	str	x1, [x0, #40]
   83c7c:	f94007e0 	ldr	x0, [sp, #8]
   83c80:	f9000c1f 	str	xzr, [x0, #24]
   83c84:	f94007e0 	ldr	x0, [sp, #8]
   83c88:	f900101f 	str	xzr, [x0, #32]
   83c8c:	d503201f 	nop
   83c90:	910083ff 	add	sp, sp, #0x20
   83c94:	d65f03c0 	ret

0000000000083c98 <virtual_segment_init>:
   83c98:	d503201f 	nop
   83c9c:	d65f03c0 	ret

0000000000083ca0 <mem_malloc_test>:
   83ca0:	d503201f 	nop
   83ca4:	d65f03c0 	ret

0000000000083ca8 <mem_priority_queue>:
   83ca8:	d503201f 	nop
   83cac:	d65f03c0 	ret

0000000000083cb0 <find_next_free_page>:
   83cb0:	d10043ff 	sub	sp, sp, #0x10
   83cb4:	f90007e0 	str	x0, [sp, #8]
   83cb8:	d503201f 	nop
   83cbc:	910043ff 	add	sp, sp, #0x10
   83cc0:	d65f03c0 	ret

0000000000083cc4 <find_next_free_page_bfs>:
   83cc4:	d10043ff 	sub	sp, sp, #0x10
   83cc8:	f90007e0 	str	x0, [sp, #8]
   83ccc:	d503201f 	nop
   83cd0:	910043ff 	add	sp, sp, #0x10
   83cd4:	d65f03c0 	ret

0000000000083cd8 <allocator_init>:
   83cd8:	d503201f 	nop
   83cdc:	d65f03c0 	ret

0000000000083ce0 <timer_init>:
   83ce0:	a9bf7bfd 	stp	x29, x30, [sp, #-16]!
   83ce4:	910003fd 	mov	x29, sp
   83ce8:	97fffcd3 	bl	83034 <get_system_clk>
   83cec:	d342fc01 	lsr	x1, x0, #2
   83cf0:	d29eb860 	mov	x0, #0xf5c3                	// #62915
   83cf4:	f2ab8500 	movk	x0, #0x5c28, lsl #16
   83cf8:	f2d851e0 	movk	x0, #0xc28f, lsl #32
   83cfc:	f2e51ea0 	movk	x0, #0x28f5, lsl #48
   83d00:	9bc07c20 	umulh	x0, x1, x0
   83d04:	d342fc01 	lsr	x1, x0, #2
   83d08:	b00000a0 	adrp	x0, 98000 <spiRecvBuf>
   83d0c:	9118e000 	add	x0, x0, #0x638
   83d10:	f9000001 	str	x1, [x0]
   83d14:	d2968000 	mov	x0, #0xb400                	// #46080
   83d18:	f2a7e000 	movk	x0, #0x3f00, lsl #16
   83d1c:	52800fa1 	mov	w1, #0x7d                  	// #125
   83d20:	b9001c01 	str	w1, [x0, #28]
   83d24:	d2968000 	mov	x0, #0xb400                	// #46080
   83d28:	f2a7e000 	movk	x0, #0x3f00, lsl #16
   83d2c:	5289b021 	mov	w1, #0x4d81                	// #19841
   83d30:	b9000001 	str	w1, [x0]
   83d34:	d2968000 	mov	x0, #0xb400                	// #46080
   83d38:	f2a7e000 	movk	x0, #0x3f00, lsl #16
   83d3c:	52801441 	mov	w1, #0xa2                  	// #162
   83d40:	b9000801 	str	w1, [x0, #8]
   83d44:	d503201f 	nop
   83d48:	a8c17bfd 	ldp	x29, x30, [sp], #16
   83d4c:	d65f03c0 	ret

0000000000083d50 <timer_irq_handler>:
   83d50:	a9bf7bfd 	stp	x29, x30, [sp, #-16]!
   83d54:	910003fd 	mov	x29, sp
   83d58:	b00000a0 	adrp	x0, 98000 <spiRecvBuf>
   83d5c:	91190000 	add	x0, x0, #0x640
   83d60:	f9400000 	ldr	x0, [x0]
   83d64:	91000401 	add	x1, x0, #0x1
   83d68:	b00000a0 	adrp	x0, 98000 <spiRecvBuf>
   83d6c:	91190000 	add	x0, x0, #0x640
   83d70:	f9000001 	str	x1, [x0]
   83d74:	b00000a0 	adrp	x0, 98000 <spiRecvBuf>
   83d78:	91190000 	add	x0, x0, #0x640
   83d7c:	f9400002 	ldr	x2, [x0]
   83d80:	d342fc41 	lsr	x1, x2, #2
   83d84:	d29eb860 	mov	x0, #0xf5c3                	// #62915
   83d88:	f2ab8500 	movk	x0, #0x5c28, lsl #16
   83d8c:	f2d851e0 	movk	x0, #0xc28f, lsl #32
   83d90:	f2e51ea0 	movk	x0, #0x28f5, lsl #48
   83d94:	9bc07c20 	umulh	x0, x1, x0
   83d98:	d342fc01 	lsr	x1, x0, #2
   83d9c:	aa0103e0 	mov	x0, x1
   83da0:	d37ff800 	lsl	x0, x0, #1
   83da4:	8b010000 	add	x0, x0, x1
   83da8:	d37df000 	lsl	x0, x0, #3
   83dac:	8b010000 	add	x0, x0, x1
   83db0:	d37ef400 	lsl	x0, x0, #2
   83db4:	cb000041 	sub	x1, x2, x0
   83db8:	f100003f 	cmp	x1, #0x0
   83dbc:	54000081 	b.ne	83dcc <timer_irq_handler+0x7c>  // b.any
   83dc0:	b0000000 	adrp	x0, 84000 <i2c_recv+0xa0>
   83dc4:	911ee000 	add	x0, x0, #0x7b8
   83dc8:	97fffe72 	bl	83790 <printk>
   83dcc:	b00000a0 	adrp	x0, 98000 <spiRecvBuf>
   83dd0:	9118e000 	add	x0, x0, #0x638
   83dd4:	f9400000 	ldr	x0, [x0]
   83dd8:	97fffc99 	bl	8303c <set_timer_interval>
   83ddc:	d503201f 	nop
   83de0:	a8c17bfd 	ldp	x29, x30, [sp], #16
   83de4:	d65f03c0 	ret

0000000000083de8 <spi_init>:
   83de8:	d503201f 	nop
   83dec:	d65f03c0 	ret

0000000000083df0 <i2c_init>:
   83df0:	a9bf7bfd 	stp	x29, x30, [sp, #-16]!
   83df4:	910003fd 	mov	x29, sp
   83df8:	52800081 	mov	w1, #0x4                   	// #4
   83dfc:	52800040 	mov	w0, #0x2                   	// #2
   83e00:	940001a7 	bl	8449c <gpio_pin_func_select>
   83e04:	52800081 	mov	w1, #0x4                   	// #4
   83e08:	52800060 	mov	w0, #0x3                   	// #3
   83e0c:	940001a4 	bl	8449c <gpio_pin_func_select>
   83e10:	52800040 	mov	w0, #0x2                   	// #2
   83e14:	940001da 	bl	8457c <gpio_pin_enable>
   83e18:	52800060 	mov	w0, #0x3                   	// #3
   83e1c:	940001d8 	bl	8457c <gpio_pin_enable>
   83e20:	d2880000 	mov	x0, #0x4000                	// #16384
   83e24:	f2a7f000 	movk	x0, #0x3f80, lsl #16
   83e28:	52875301 	mov	w1, #0x3a98                	// #15000
   83e2c:	b9001401 	str	w1, [x0, #20]
   83e30:	d503201f 	nop
   83e34:	a8c17bfd 	ldp	x29, x30, [sp], #16
   83e38:	d65f03c0 	ret

0000000000083e3c <i2c_send>:
   83e3c:	d10103ff 	sub	sp, sp, #0x40
   83e40:	f9000fe0 	str	x0, [sp, #24]
   83e44:	f9000be1 	str	x1, [sp, #16]
   83e48:	f90007e2 	str	x2, [sp, #8]
   83e4c:	b9003fff 	str	wzr, [sp, #60]
   83e50:	d2880000 	mov	x0, #0x4000                	// #16384
   83e54:	f2a7f000 	movk	x0, #0x3f80, lsl #16
   83e58:	f9400fe1 	ldr	x1, [sp, #24]
   83e5c:	b9000c01 	str	w1, [x0, #12]
   83e60:	d2880000 	mov	x0, #0x4000                	// #16384
   83e64:	f2a7f000 	movk	x0, #0x3f80, lsl #16
   83e68:	52806041 	mov	w1, #0x302                 	// #770
   83e6c:	b9000401 	str	w1, [x0, #4]
   83e70:	d2880000 	mov	x0, #0x4000                	// #16384
   83e74:	f2a7f000 	movk	x0, #0x3f80, lsl #16
   83e78:	f94007e1 	ldr	x1, [sp, #8]
   83e7c:	b9000801 	str	w1, [x0, #8]
   83e80:	d2880000 	mov	x0, #0x4000                	// #16384
   83e84:	f2a7f000 	movk	x0, #0x3f80, lsl #16
   83e88:	52901001 	mov	w1, #0x8080                	// #32896
   83e8c:	b9000001 	str	w1, [x0]
   83e90:	f9001bff 	str	xzr, [sp, #48]
   83e94:	14000012 	b	83edc <i2c_send+0xa0>
   83e98:	d2880000 	mov	x0, #0x4000                	// #16384
   83e9c:	f2a7f000 	movk	x0, #0x3f80, lsl #16
   83ea0:	b9401002 	ldr	w2, [x0, #16]
   83ea4:	f9400be0 	ldr	x0, [sp, #16]
   83ea8:	91000401 	add	x1, x0, #0x1
   83eac:	f9000be1 	str	x1, [sp, #16]
   83eb0:	12001c41 	and	w1, w2, #0xff
   83eb4:	39000001 	strb	w1, [x0]
   83eb8:	f9401be0 	ldr	x0, [sp, #48]
   83ebc:	91000400 	add	x0, x0, #0x1
   83ec0:	f9001be0 	str	x0, [sp, #48]
   83ec4:	d2880000 	mov	x0, #0x4000                	// #16384
   83ec8:	f2a7f000 	movk	x0, #0x3f80, lsl #16
   83ecc:	b9400400 	ldr	w0, [x0, #4]
   83ed0:	121b0000 	and	w0, w0, #0x20
   83ed4:	7100001f 	cmp	w0, #0x0
   83ed8:	54fffe01 	b.ne	83e98 <i2c_send+0x5c>  // b.any
   83edc:	d2880000 	mov	x0, #0x4000                	// #16384
   83ee0:	f2a7f000 	movk	x0, #0x3f80, lsl #16
   83ee4:	b9400400 	ldr	w0, [x0, #4]
   83ee8:	121f0000 	and	w0, w0, #0x2
   83eec:	7100001f 	cmp	w0, #0x0
   83ef0:	54fffea0 	b.eq	83ec4 <i2c_send+0x88>  // b.none
   83ef4:	d2880000 	mov	x0, #0x4000                	// #16384
   83ef8:	f2a7f000 	movk	x0, #0x3f80, lsl #16
   83efc:	b9400400 	ldr	w0, [x0, #4]
   83f00:	b9002fe0 	str	w0, [sp, #44]
   83f04:	b9402fe0 	ldr	w0, [sp, #44]
   83f08:	12180000 	and	w0, w0, #0x100
   83f0c:	7100001f 	cmp	w0, #0x0
   83f10:	54000080 	b.eq	83f20 <i2c_send+0xe4>  // b.none
   83f14:	52800020 	mov	w0, #0x1                   	// #1
   83f18:	b9003fe0 	str	w0, [sp, #60]
   83f1c:	1400000e 	b	83f54 <i2c_send+0x118>
   83f20:	b9402fe0 	ldr	w0, [sp, #44]
   83f24:	12170000 	and	w0, w0, #0x200
   83f28:	7100001f 	cmp	w0, #0x0
   83f2c:	54000080 	b.eq	83f3c <i2c_send+0x100>  // b.none
   83f30:	52800060 	mov	w0, #0x3                   	// #3
   83f34:	b9003fe0 	str	w0, [sp, #60]
   83f38:	14000007 	b	83f54 <i2c_send+0x118>
   83f3c:	f9401be1 	ldr	x1, [sp, #48]
   83f40:	f94007e0 	ldr	x0, [sp, #8]
   83f44:	eb00003f 	cmp	x1, x0
   83f48:	54000062 	b.cs	83f54 <i2c_send+0x118>  // b.hs, b.nlast
   83f4c:	52800040 	mov	w0, #0x2                   	// #2
   83f50:	b9003fe0 	str	w0, [sp, #60]
   83f54:	b9403fe0 	ldr	w0, [sp, #60]
   83f58:	910103ff 	add	sp, sp, #0x40
   83f5c:	d65f03c0 	ret

0000000000083f60 <i2c_recv>:
   83f60:	d10103ff 	sub	sp, sp, #0x40
   83f64:	f9000fe0 	str	x0, [sp, #24]
   83f68:	f9000be1 	str	x1, [sp, #16]
   83f6c:	f90007e2 	str	x2, [sp, #8]
   83f70:	b9003fff 	str	wzr, [sp, #60]
   83f74:	d2880000 	mov	x0, #0x4000                	// #16384
   83f78:	f2a7f000 	movk	x0, #0x3f80, lsl #16
   83f7c:	f9400fe1 	ldr	x1, [sp, #24]
   83f80:	b9000c01 	str	w1, [x0, #12]
   83f84:	d2880000 	mov	x0, #0x4000                	// #16384
   83f88:	f2a7f000 	movk	x0, #0x3f80, lsl #16
   83f8c:	52806041 	mov	w1, #0x302                 	// #770
   83f90:	b9000401 	str	w1, [x0, #4]
   83f94:	d2880000 	mov	x0, #0x4000                	// #16384
   83f98:	f2a7f000 	movk	x0, #0x3f80, lsl #16
   83f9c:	f94007e1 	ldr	x1, [sp, #8]
   83fa0:	b9000801 	str	w1, [x0, #8]
   83fa4:	d2880000 	mov	x0, #0x4000                	// #16384
   83fa8:	f2a7f000 	movk	x0, #0x3f80, lsl #16
   83fac:	52901021 	mov	w1, #0x8081                	// #32897
   83fb0:	b9000001 	str	w1, [x0]
   83fb4:	f9001bff 	str	xzr, [sp, #48]
   83fb8:	14000012 	b	84000 <i2c_recv+0xa0>
   83fbc:	d2880000 	mov	x0, #0x4000                	// #16384
   83fc0:	f2a7f000 	movk	x0, #0x3f80, lsl #16
   83fc4:	b9401002 	ldr	w2, [x0, #16]
   83fc8:	f9400be0 	ldr	x0, [sp, #16]
   83fcc:	91000401 	add	x1, x0, #0x1
   83fd0:	f9000be1 	str	x1, [sp, #16]
   83fd4:	12001c41 	and	w1, w2, #0xff
   83fd8:	39000001 	strb	w1, [x0]
   83fdc:	f9401be0 	ldr	x0, [sp, #48]
   83fe0:	91000400 	add	x0, x0, #0x1
   83fe4:	f9001be0 	str	x0, [sp, #48]
   83fe8:	d2880000 	mov	x0, #0x4000                	// #16384
   83fec:	f2a7f000 	movk	x0, #0x3f80, lsl #16
   83ff0:	b9400400 	ldr	w0, [x0, #4]
   83ff4:	121b0000 	and	w0, w0, #0x20
   83ff8:	7100001f 	cmp	w0, #0x0
   83ffc:	54fffe01 	b.ne	83fbc <i2c_recv+0x5c>  // b.any
   84000:	d2880000 	mov	x0, #0x4000                	// #16384
   84004:	f2a7f000 	movk	x0, #0x3f80, lsl #16
   84008:	b9400400 	ldr	w0, [x0, #4]
   8400c:	121f0000 	and	w0, w0, #0x2
   84010:	7100001f 	cmp	w0, #0x0
   84014:	54fffea0 	b.eq	83fe8 <i2c_recv+0x88>  // b.none
   84018:	1400000c 	b	84048 <i2c_recv+0xe8>
   8401c:	d2880000 	mov	x0, #0x4000                	// #16384
   84020:	f2a7f000 	movk	x0, #0x3f80, lsl #16
   84024:	b9401002 	ldr	w2, [x0, #16]
   84028:	f9400be0 	ldr	x0, [sp, #16]
   8402c:	91000401 	add	x1, x0, #0x1
   84030:	f9000be1 	str	x1, [sp, #16]
   84034:	12001c41 	and	w1, w2, #0xff
   84038:	39000001 	strb	w1, [x0]
   8403c:	f9401be0 	ldr	x0, [sp, #48]
   84040:	91000400 	add	x0, x0, #0x1
   84044:	f9001be0 	str	x0, [sp, #48]
   84048:	f9401be1 	ldr	x1, [sp, #48]
   8404c:	f94007e0 	ldr	x0, [sp, #8]
   84050:	eb00003f 	cmp	x1, x0
   84054:	540000e2 	b.cs	84070 <i2c_recv+0x110>  // b.hs, b.nlast
   84058:	d2880000 	mov	x0, #0x4000                	// #16384
   8405c:	f2a7f000 	movk	x0, #0x3f80, lsl #16
   84060:	b9400400 	ldr	w0, [x0, #4]
   84064:	121b0000 	and	w0, w0, #0x20
   84068:	7100001f 	cmp	w0, #0x0
   8406c:	54fffd81 	b.ne	8401c <i2c_recv+0xbc>  // b.any
   84070:	d2880000 	mov	x0, #0x4000                	// #16384
   84074:	f2a7f000 	movk	x0, #0x3f80, lsl #16
   84078:	b9400400 	ldr	w0, [x0, #4]
   8407c:	b9002fe0 	str	w0, [sp, #44]
   84080:	b9402fe0 	ldr	w0, [sp, #44]
   84084:	12180000 	and	w0, w0, #0x100
   84088:	7100001f 	cmp	w0, #0x0
   8408c:	54000080 	b.eq	8409c <i2c_recv+0x13c>  // b.none
   84090:	52800020 	mov	w0, #0x1                   	// #1
   84094:	b9003fe0 	str	w0, [sp, #60]
   84098:	1400000e 	b	840d0 <i2c_recv+0x170>
   8409c:	b9402fe0 	ldr	w0, [sp, #44]
   840a0:	12170000 	and	w0, w0, #0x200
   840a4:	7100001f 	cmp	w0, #0x0
   840a8:	54000080 	b.eq	840b8 <i2c_recv+0x158>  // b.none
   840ac:	52800060 	mov	w0, #0x3                   	// #3
   840b0:	b9003fe0 	str	w0, [sp, #60]
   840b4:	14000007 	b	840d0 <i2c_recv+0x170>
   840b8:	f9401be1 	ldr	x1, [sp, #48]
   840bc:	f94007e0 	ldr	x0, [sp, #8]
   840c0:	eb00003f 	cmp	x1, x0
   840c4:	54000062 	b.cs	840d0 <i2c_recv+0x170>  // b.hs, b.nlast
   840c8:	52800040 	mov	w0, #0x2                   	// #2
   840cc:	b9003fe0 	str	w0, [sp, #60]
   840d0:	b9403fe0 	ldr	w0, [sp, #60]
   840d4:	910103ff 	add	sp, sp, #0x40
   840d8:	d65f03c0 	ret

00000000000840dc <uart_register_map_dump>:
   840dc:	d503201f 	nop
   840e0:	d65f03c0 	ret

00000000000840e4 <uart_init>:
   840e4:	d10083ff 	sub	sp, sp, #0x20
   840e8:	b9000fe0 	str	w0, [sp, #12]
   840ec:	b9001fff 	str	wzr, [sp, #28]
   840f0:	b9001bff 	str	wzr, [sp, #24]
   840f4:	b90017ff 	str	wzr, [sp, #20]
   840f8:	b9400fe0 	ldr	w0, [sp, #12]
   840fc:	7100001f 	cmp	w0, #0x0
   84100:	540000a0 	b.eq	84114 <uart_init+0x30>  // b.none
   84104:	b9400fe0 	ldr	w0, [sp, #12]
   84108:	7100041f 	cmp	w0, #0x1
   8410c:	540000e0 	b.eq	84128 <uart_init+0x44>  // b.none
   84110:	1400000b 	b	8413c <uart_init+0x58>
   84114:	52800e00 	mov	w0, #0x70                  	// #112
   84118:	b9001fe0 	str	w0, [sp, #28]
   8411c:	52806020 	mov	w0, #0x301                 	// #769
   84120:	b90017e0 	str	w0, [sp, #20]
   84124:	14000006 	b	8413c <uart_init+0x58>
   84128:	52800e00 	mov	w0, #0x70                  	// #112
   8412c:	b9001fe0 	str	w0, [sp, #28]
   84130:	52806020 	mov	w0, #0x301                 	// #769
   84134:	b90017e0 	str	w0, [sp, #20]
   84138:	d503201f 	nop
   8413c:	d2820000 	mov	x0, #0x1000                	// #4096
   84140:	f2a7e400 	movk	x0, #0x3f20, lsl #16
   84144:	b900301f 	str	wzr, [x0, #48]
   84148:	d2820000 	mov	x0, #0x1000                	// #4096
   8414c:	f2a7e400 	movk	x0, #0x3f20, lsl #16
   84150:	52800341 	mov	w1, #0x1a                  	// #26
   84154:	b9002401 	str	w1, [x0, #36]
   84158:	d2820000 	mov	x0, #0x1000                	// #4096
   8415c:	f2a7e400 	movk	x0, #0x3f20, lsl #16
   84160:	b900281f 	str	wzr, [x0, #40]
   84164:	d2820000 	mov	x0, #0x1000                	// #4096
   84168:	f2a7e400 	movk	x0, #0x3f20, lsl #16
   8416c:	b9401fe1 	ldr	w1, [sp, #28]
   84170:	b9002c01 	str	w1, [x0, #44]
   84174:	d2820000 	mov	x0, #0x1000                	// #4096
   84178:	f2a7e400 	movk	x0, #0x3f20, lsl #16
   8417c:	b900381f 	str	wzr, [x0, #56]
   84180:	d2820000 	mov	x0, #0x1000                	// #4096
   84184:	f2a7e400 	movk	x0, #0x3f20, lsl #16
   84188:	b94017e1 	ldr	w1, [sp, #20]
   8418c:	b9003001 	str	w1, [x0, #48]
   84190:	d503201f 	nop
   84194:	910083ff 	add	sp, sp, #0x20
   84198:	d65f03c0 	ret

000000000008419c <uart_send_c>:
   8419c:	d10043ff 	sub	sp, sp, #0x10
   841a0:	39003fe0 	strb	w0, [sp, #15]
   841a4:	d503201f 	nop
   841a8:	d2820000 	mov	x0, #0x1000                	// #4096
   841ac:	f2a7e400 	movk	x0, #0x3f20, lsl #16
   841b0:	b9401800 	ldr	w0, [x0, #24]
   841b4:	121b0000 	and	w0, w0, #0x20
   841b8:	7100001f 	cmp	w0, #0x0
   841bc:	54ffff61 	b.ne	841a8 <uart_send_c+0xc>  // b.any
   841c0:	d2820000 	mov	x0, #0x1000                	// #4096
   841c4:	f2a7e400 	movk	x0, #0x3f20, lsl #16
   841c8:	39403fe1 	ldrb	w1, [sp, #15]
   841cc:	b9000001 	str	w1, [x0]
   841d0:	d503201f 	nop
   841d4:	910043ff 	add	sp, sp, #0x10
   841d8:	d65f03c0 	ret

00000000000841dc <uart_irq_handler>:
   841dc:	d503201f 	nop
   841e0:	d65f03c0 	ret

00000000000841e4 <uart_send_data>:
   841e4:	d10043ff 	sub	sp, sp, #0x10
   841e8:	39003fe0 	strb	w0, [sp, #15]
   841ec:	d503201f 	nop
   841f0:	d2820000 	mov	x0, #0x1000                	// #4096
   841f4:	f2a7e400 	movk	x0, #0x3f20, lsl #16
   841f8:	b9401800 	ldr	w0, [x0, #24]
   841fc:	121b0000 	and	w0, w0, #0x20
   84200:	7100001f 	cmp	w0, #0x0
   84204:	54ffff61 	b.ne	841f0 <uart_send_data+0xc>  // b.any
   84208:	d2820000 	mov	x0, #0x1000                	// #4096
   8420c:	f2a7e400 	movk	x0, #0x3f20, lsl #16
   84210:	39403fe1 	ldrb	w1, [sp, #15]
   84214:	b9000001 	str	w1, [x0]
   84218:	d503201f 	nop
   8421c:	910043ff 	add	sp, sp, #0x10
   84220:	d65f03c0 	ret

0000000000084224 <uart_read_data>:
   84224:	d503201f 	nop
   84228:	d2820000 	mov	x0, #0x1000                	// #4096
   8422c:	f2a7e400 	movk	x0, #0x3f20, lsl #16
   84230:	b9401800 	ldr	w0, [x0, #24]
   84234:	121c0000 	and	w0, w0, #0x10
   84238:	7100001f 	cmp	w0, #0x0
   8423c:	54ffff61 	b.ne	84228 <uart_read_data+0x4>  // b.any
   84240:	d2820000 	mov	x0, #0x1000                	// #4096
   84244:	f2a7e400 	movk	x0, #0x3f20, lsl #16
   84248:	b9400000 	ldr	w0, [x0]
   8424c:	12001c00 	and	w0, w0, #0xff
   84250:	d65f03c0 	ret

0000000000084254 <uart_write_string>:
   84254:	a9bd7bfd 	stp	x29, x30, [sp, #-48]!
   84258:	910003fd 	mov	x29, sp
   8425c:	f9000fe0 	str	x0, [sp, #24]
   84260:	b9002fff 	str	wzr, [sp, #44]
   84264:	14000009 	b	84288 <uart_write_string+0x34>
   84268:	b9802fe0 	ldrsw	x0, [sp, #44]
   8426c:	f9400fe1 	ldr	x1, [sp, #24]
   84270:	8b000020 	add	x0, x1, x0
   84274:	39400000 	ldrb	w0, [x0]
   84278:	97ffffdb 	bl	841e4 <uart_send_data>
   8427c:	b9402fe0 	ldr	w0, [sp, #44]
   84280:	11000400 	add	w0, w0, #0x1
   84284:	b9002fe0 	str	w0, [sp, #44]
   84288:	b9802fe0 	ldrsw	x0, [sp, #44]
   8428c:	f9400fe1 	ldr	x1, [sp, #24]
   84290:	8b000020 	add	x0, x1, x0
   84294:	39400000 	ldrb	w0, [x0]
   84298:	7100001f 	cmp	w0, #0x0
   8429c:	54fffe61 	b.ne	84268 <uart_write_string+0x14>  // b.any
   842a0:	d503201f 	nop
   842a4:	d503201f 	nop
   842a8:	a8c37bfd 	ldp	x29, x30, [sp], #48
   842ac:	d65f03c0 	ret

00000000000842b0 <dump_uart>:
   842b0:	a9bf7bfd 	stp	x29, x30, [sp, #-16]!
   842b4:	910003fd 	mov	x29, sp
   842b8:	90000000 	adrp	x0, 84000 <i2c_recv+0xa0>
   842bc:	911f0000 	add	x0, x0, #0x7c0
   842c0:	97fffd34 	bl	83790 <printk>
   842c4:	d2820301 	mov	x1, #0x1018                	// #4120
   842c8:	f2a7e401 	movk	x1, #0x3f20, lsl #16
   842cc:	90000000 	adrp	x0, 84000 <i2c_recv+0xa0>
   842d0:	911f8000 	add	x0, x0, #0x7e0
   842d4:	97fffd2f 	bl	83790 <printk>
   842d8:	d2820481 	mov	x1, #0x1024                	// #4132
   842dc:	f2a7e401 	movk	x1, #0x3f20, lsl #16
   842e0:	90000000 	adrp	x0, 84000 <i2c_recv+0xa0>
   842e4:	911fc000 	add	x0, x0, #0x7f0
   842e8:	97fffd2a 	bl	83790 <printk>
   842ec:	d2820501 	mov	x1, #0x1028                	// #4136
   842f0:	f2a7e401 	movk	x1, #0x3f20, lsl #16
   842f4:	90000000 	adrp	x0, 84000 <i2c_recv+0xa0>
   842f8:	91200000 	add	x0, x0, #0x800
   842fc:	97fffd25 	bl	83790 <printk>
   84300:	d2820501 	mov	x1, #0x1028                	// #4136
   84304:	f2a7e401 	movk	x1, #0x3f20, lsl #16
   84308:	90000000 	adrp	x0, 84000 <i2c_recv+0xa0>
   8430c:	91204000 	add	x0, x0, #0x810
   84310:	97fffd20 	bl	83790 <printk>
   84314:	d28207c1 	mov	x1, #0x103e                	// #4158
   84318:	f2a7e401 	movk	x1, #0x3f20, lsl #16
   8431c:	90000000 	adrp	x0, 84000 <i2c_recv+0xa0>
   84320:	91208000 	add	x0, x0, #0x820
   84324:	97fffd1b 	bl	83790 <printk>
   84328:	d2820701 	mov	x1, #0x1038                	// #4152
   8432c:	f2a7e401 	movk	x1, #0x3f20, lsl #16
   84330:	90000000 	adrp	x0, 84000 <i2c_recv+0xa0>
   84334:	9120c000 	add	x0, x0, #0x830
   84338:	97fffd16 	bl	83790 <printk>
   8433c:	d2820601 	mov	x1, #0x1030                	// #4144
   84340:	f2a7e401 	movk	x1, #0x3f20, lsl #16
   84344:	90000000 	adrp	x0, 84000 <i2c_recv+0xa0>
   84348:	91210000 	add	x0, x0, #0x840
   8434c:	97fffd11 	bl	83790 <printk>
   84350:	90000000 	adrp	x0, 84000 <i2c_recv+0xa0>
   84354:	91214000 	add	x0, x0, #0x850
   84358:	97fffd0e 	bl	83790 <printk>
   8435c:	d503201f 	nop
   84360:	a8c17bfd 	ldp	x29, x30, [sp], #16
   84364:	d65f03c0 	ret

0000000000084368 <dump_timer>:
   84368:	a9bf7bfd 	stp	x29, x30, [sp, #-16]!
   8436c:	910003fd 	mov	x29, sp
   84370:	90000000 	adrp	x0, 84000 <i2c_recv+0xa0>
   84374:	9121c000 	add	x0, x0, #0x870
   84378:	97fffd06 	bl	83790 <printk>
   8437c:	d2968001 	mov	x1, #0xb400                	// #46080
   84380:	f2a7e001 	movk	x1, #0x3f00, lsl #16
   84384:	90000000 	adrp	x0, 84000 <i2c_recv+0xa0>
   84388:	91224000 	add	x0, x0, #0x890
   8438c:	97fffd01 	bl	83790 <printk>
   84390:	d2968101 	mov	x1, #0xb408                	// #46088
   84394:	f2a7e001 	movk	x1, #0x3f00, lsl #16
   84398:	90000000 	adrp	x0, 84000 <i2c_recv+0xa0>
   8439c:	9122a000 	add	x0, x0, #0x8a8
   843a0:	97fffcfc 	bl	83790 <printk>
   843a4:	d2968181 	mov	x1, #0xb40c                	// #46092
   843a8:	f2a7e001 	movk	x1, #0x3f00, lsl #16
   843ac:	90000000 	adrp	x0, 84000 <i2c_recv+0xa0>
   843b0:	91230000 	add	x0, x0, #0x8c0
   843b4:	97fffcf7 	bl	83790 <printk>
   843b8:	d2968281 	mov	x1, #0xb414                	// #46100
   843bc:	f2a7e001 	movk	x1, #0x3f00, lsl #16
   843c0:	90000000 	adrp	x0, 84000 <i2c_recv+0xa0>
   843c4:	91236000 	add	x0, x0, #0x8d8
   843c8:	97fffcf2 	bl	83790 <printk>
   843cc:	d2968381 	mov	x1, #0xb41c                	// #46108
   843d0:	f2a7e001 	movk	x1, #0x3f00, lsl #16
   843d4:	90000000 	adrp	x0, 84000 <i2c_recv+0xa0>
   843d8:	9123c000 	add	x0, x0, #0x8f0
   843dc:	97fffced 	bl	83790 <printk>
   843e0:	90000000 	adrp	x0, 84000 <i2c_recv+0xa0>
   843e4:	91214000 	add	x0, x0, #0x850
   843e8:	97fffcea 	bl	83790 <printk>
   843ec:	d503201f 	nop
   843f0:	a8c17bfd 	ldp	x29, x30, [sp], #16
   843f4:	d65f03c0 	ret

00000000000843f8 <register_dump>:
   843f8:	a9be7bfd 	stp	x29, x30, [sp, #-32]!
   843fc:	910003fd 	mov	x29, sp
   84400:	b9001fe0 	str	w0, [sp, #28]
   84404:	b9401fe0 	ldr	w0, [sp, #28]
   84408:	7100101f 	cmp	w0, #0x4
   8440c:	54000260 	b.eq	84458 <register_dump+0x60>  // b.none
   84410:	b9401fe0 	ldr	w0, [sp, #28]
   84414:	7100101f 	cmp	w0, #0x4
   84418:	54000248 	b.hi	84460 <register_dump+0x68>  // b.pmore
   8441c:	b9401fe0 	ldr	w0, [sp, #28]
   84420:	7100081f 	cmp	w0, #0x2
   84424:	54000220 	b.eq	84468 <register_dump+0x70>  // b.none
   84428:	b9401fe0 	ldr	w0, [sp, #28]
   8442c:	7100081f 	cmp	w0, #0x2
   84430:	54000188 	b.hi	84460 <register_dump+0x68>  // b.pmore
   84434:	b9401fe0 	ldr	w0, [sp, #28]
   84438:	7100001f 	cmp	w0, #0x0
   8443c:	540000a0 	b.eq	84450 <register_dump+0x58>  // b.none
   84440:	b9401fe0 	ldr	w0, [sp, #28]
   84444:	7100041f 	cmp	w0, #0x1
   84448:	54000140 	b.eq	84470 <register_dump+0x78>  // b.none
   8444c:	14000005 	b	84460 <register_dump+0x68>
   84450:	97ffff98 	bl	842b0 <dump_uart>
   84454:	14000008 	b	84474 <register_dump+0x7c>
   84458:	97ffffc4 	bl	84368 <dump_timer>
   8445c:	14000006 	b	84474 <register_dump+0x7c>
   84460:	d503201f 	nop
   84464:	14000004 	b	84474 <register_dump+0x7c>
   84468:	d503201f 	nop
   8446c:	14000002 	b	84474 <register_dump+0x7c>
   84470:	d503201f 	nop
   84474:	d503201f 	nop
   84478:	a8c27bfd 	ldp	x29, x30, [sp], #32
   8447c:	d65f03c0 	ret

0000000000084480 <devices_init>:
   84480:	a9bf7bfd 	stp	x29, x30, [sp, #-16]!
   84484:	910003fd 	mov	x29, sp
   84488:	52800000 	mov	w0, #0x0                   	// #0
   8448c:	97ffff16 	bl	840e4 <uart_init>
   84490:	d503201f 	nop
   84494:	a8c17bfd 	ldp	x29, x30, [sp], #16
   84498:	d65f03c0 	ret

000000000008449c <gpio_pin_func_select>:
   8449c:	d10083ff 	sub	sp, sp, #0x20
   844a0:	39003fe0 	strb	w0, [sp, #15]
   844a4:	b9000be1 	str	w1, [sp, #8]
   844a8:	39403fe1 	ldrb	w1, [sp, #15]
   844ac:	2a0103e0 	mov	w0, w1
   844b0:	531f7800 	lsl	w0, w0, #1
   844b4:	0b010001 	add	w1, w0, w1
   844b8:	52911120 	mov	w0, #0x8889                	// #34953
   844bc:	72b11100 	movk	w0, #0x8888, lsl #16
   844c0:	9b207c20 	smull	x0, w1, w0
   844c4:	d360fc00 	lsr	x0, x0, #32
   844c8:	0b000020 	add	w0, w1, w0
   844cc:	13047c02 	asr	w2, w0, #4
   844d0:	131f7c20 	asr	w0, w1, #31
   844d4:	4b000042 	sub	w2, w2, w0
   844d8:	2a0203e0 	mov	w0, w2
   844dc:	531c6c00 	lsl	w0, w0, #4
   844e0:	4b020000 	sub	w0, w0, w2
   844e4:	531f7800 	lsl	w0, w0, #1
   844e8:	4b000022 	sub	w2, w1, w0
   844ec:	2a0203e0 	mov	w0, w2
   844f0:	39007fe0 	strb	w0, [sp, #31]
   844f4:	39403fe1 	ldrb	w1, [sp, #15]
   844f8:	529999a0 	mov	w0, #0xcccd                	// #52429
   844fc:	72b99980 	movk	w0, #0xcccc, lsl #16
   84500:	9ba07c20 	umull	x0, w1, w0
   84504:	d360fc00 	lsr	x0, x0, #32
   84508:	53037c00 	lsr	w0, w0, #3
   8450c:	39007be0 	strb	w0, [sp, #30]
   84510:	d2a7e400 	mov	x0, #0x3f200000            	// #1059061760
   84514:	39407be1 	ldrb	w1, [sp, #30]
   84518:	93407c21 	sxtw	x1, w1
   8451c:	b8617800 	ldr	w0, [x0, x1, lsl #2]
   84520:	b9001be0 	str	w0, [sp, #24]
   84524:	39407fe0 	ldrb	w0, [sp, #31]
   84528:	528000e1 	mov	w1, #0x7                   	// #7
   8452c:	1ac02020 	lsl	w0, w1, w0
   84530:	2a2003e0 	mvn	w0, w0
   84534:	2a0003e1 	mov	w1, w0
   84538:	b9401be0 	ldr	w0, [sp, #24]
   8453c:	0a010000 	and	w0, w0, w1
   84540:	b9001be0 	str	w0, [sp, #24]
   84544:	39407fe0 	ldrb	w0, [sp, #31]
   84548:	b9400be1 	ldr	w1, [sp, #8]
   8454c:	1ac02020 	lsl	w0, w1, w0
   84550:	b9401be1 	ldr	w1, [sp, #24]
   84554:	2a000020 	orr	w0, w1, w0
   84558:	b9001be0 	str	w0, [sp, #24]
   8455c:	d2a7e400 	mov	x0, #0x3f200000            	// #1059061760
   84560:	39407be1 	ldrb	w1, [sp, #30]
   84564:	93407c21 	sxtw	x1, w1
   84568:	b9401be2 	ldr	w2, [sp, #24]
   8456c:	b8217802 	str	w2, [x0, x1, lsl #2]
   84570:	d503201f 	nop
   84574:	910083ff 	add	sp, sp, #0x20
   84578:	d65f03c0 	ret

000000000008457c <gpio_pin_enable>:
   8457c:	a9be7bfd 	stp	x29, x30, [sp, #-32]!
   84580:	910003fd 	mov	x29, sp
   84584:	39007fe0 	strb	w0, [sp, #31]
   84588:	d2a7e400 	mov	x0, #0x3f200000            	// #1059061760
   8458c:	b900941f 	str	wzr, [x0, #148]
   84590:	d28012c0 	mov	x0, #0x96                  	// #150
   84594:	97fff515 	bl	819e8 <delay>
   84598:	39407fe0 	ldrb	w0, [sp, #31]
   8459c:	12001000 	and	w0, w0, #0x1f
   845a0:	52800021 	mov	w1, #0x1                   	// #1
   845a4:	1ac02022 	lsl	w2, w1, w0
   845a8:	d2a7e401 	mov	x1, #0x3f200000            	// #1059061760
   845ac:	39407fe0 	ldrb	w0, [sp, #31]
   845b0:	53057c00 	lsr	w0, w0, #5
   845b4:	12001c00 	and	w0, w0, #0xff
   845b8:	93407c00 	sxtw	x0, w0
   845bc:	91009000 	add	x0, x0, #0x24
   845c0:	d37ef400 	lsl	x0, x0, #2
   845c4:	8b000020 	add	x0, x1, x0
   845c8:	b9000802 	str	w2, [x0, #8]
   845cc:	d28012c0 	mov	x0, #0x96                  	// #150
   845d0:	97fff506 	bl	819e8 <delay>
   845d4:	d2a7e400 	mov	x0, #0x3f200000            	// #1059061760
   845d8:	b900941f 	str	wzr, [x0, #148]
   845dc:	d2a7e401 	mov	x1, #0x3f200000            	// #1059061760
   845e0:	39407fe0 	ldrb	w0, [sp, #31]
   845e4:	53057c00 	lsr	w0, w0, #5
   845e8:	12001c00 	and	w0, w0, #0xff
   845ec:	93407c00 	sxtw	x0, w0
   845f0:	91009000 	add	x0, x0, #0x24
   845f4:	d37ef400 	lsl	x0, x0, #2
   845f8:	8b000020 	add	x0, x1, x0
   845fc:	b900081f 	str	wzr, [x0, #8]
   84600:	d503201f 	nop
   84604:	a8c27bfd 	ldp	x29, x30, [sp], #32
   84608:	d65f03c0 	ret

000000000008460c <gpio_set>:
   8460c:	d10083ff 	sub	sp, sp, #0x20
   84610:	39003fe0 	strb	w0, [sp, #15]
   84614:	39403fe0 	ldrb	w0, [sp, #15]
   84618:	52800021 	mov	w1, #0x1                   	// #1
   8461c:	1ac02020 	lsl	w0, w1, w0
   84620:	b9001fe0 	str	w0, [sp, #28]
   84624:	d2a7e400 	mov	x0, #0x3f200000            	// #1059061760
   84628:	b9401fe1 	ldr	w1, [sp, #28]
   8462c:	b9001c01 	str	w1, [x0, #28]
   84630:	d503201f 	nop
   84634:	910083ff 	add	sp, sp, #0x20
   84638:	d65f03c0 	ret

000000000008463c <gpio_clear>:
   8463c:	d10083ff 	sub	sp, sp, #0x20
   84640:	39003fe0 	strb	w0, [sp, #15]
   84644:	39403fe0 	ldrb	w0, [sp, #15]
   84648:	52800021 	mov	w1, #0x1                   	// #1
   8464c:	1ac02020 	lsl	w0, w1, w0
   84650:	b9001fe0 	str	w0, [sp, #28]
   84654:	d2a7e400 	mov	x0, #0x3f200000            	// #1059061760
   84658:	b9401fe1 	ldr	w1, [sp, #28]
   8465c:	b9002801 	str	w1, [x0, #40]
   84660:	d503201f 	nop
   84664:	910083ff 	add	sp, sp, #0x20
   84668:	d65f03c0 	ret

000000000008466c <entry>:
   8466c:	a9bc7bfd 	stp	x29, x30, [sp, #-64]!
   84670:	910003fd 	mov	x29, sp
   84674:	52800020 	mov	w0, #0x1                   	// #1
   84678:	b9003fe0 	str	w0, [sp, #60]
   8467c:	aa0003e0 	mov	x0, x0
   84680:	f9001be0 	str	x0, [sp, #48]
   84684:	aa0103e0 	mov	x0, x1
   84688:	f90017e0 	str	x0, [sp, #40]
   8468c:	a901ffff 	stp	xzr, xzr, [sp, #24]
   84690:	f9401be0 	ldr	x0, [sp, #48]
   84694:	12001c00 	and	w0, w0, #0xff
   84698:	390063e0 	strb	w0, [sp, #24]
   8469c:	f94017e0 	ldr	x0, [sp, #40]
   846a0:	12001c00 	and	w0, w0, #0xff
   846a4:	390067e0 	strb	w0, [sp, #25]
   846a8:	910063e0 	add	x0, sp, #0x18
   846ac:	aa0003e1 	mov	x1, x0
   846b0:	b9403fe0 	ldr	w0, [sp, #60]
   846b4:	97fffd0d 	bl	83ae8 <main>
   846b8:	a8c47bfd 	ldp	x29, x30, [sp], #64
   846bc:	d65f03c0 	ret
